(dp1
S'header'
p2
(dp3
Vdescription
p4
(dp5
Va
VEinstein A-coefficient in s-1
p6
sVglobal_upper_quanta
p7
VElectronic and vibrational quantum numbers and labels for the upper state of a transition
p8
sVgamma_air
p9
VAir-broadened Lorentzian half-width at half-maximum at p = 1 atm and T = 296 K
p10
sVgp
p11
VUpper state degeneracy
p12
sVelower
p13
VLower-state energy
p14
sVglobal_lower_quanta
p15
VElectronic and vibrational quantum numbers and labels for the lower state of a transition
p16
sVsw
p17
VLine intensity, multiplied by isotopologue abundance, at T = 296 K
p18
sVn_air
p19
VTemperature exponent for the air-broadened HWHM
p20
sVlocal_iso_id
p21
VInteger ID of a particular Isotopologue, unique only to a given molecule, in order or abundance (1 = most abundant)
p22
sVline_mixing_flag
p23
VA flag indicating the presence of additional data and code relating to line-mixing
p24
sVdelta_air
p25
VPressure shift induced by air, referred to p=1 atm
p26
sVlocal_lower_quanta
p27
VRotational, hyperfine and other quantum numbers and labels for the lower state of a transition
p28
sVlocal_upper_quanta
p29
VRotational, hyperfine and other quantum numbers and labels for the upper state of a transition
p30
sViref
p31
VOrdered list of reference identifiers for transition parameters
p32
sVierr
p33
VOrdered list of indices corresponding to uncertainty estimates of transition parameters
p34
sVmolec_id
p35
VThe HITRAN integer ID for this molecule in all its isotopologue forms
p36
sVgpp
p37
VLower state degeneracy
p38
sVnu
p39
VTransition wavenumber
p40
sVgamma_self
p41
VSelf-broadened HWHM at 1 atm pressure and 296 K
p42
ssVformat
p43
(dp44
Vgamma_air
p45
V%5.4f
p46
sVgp
p47
V%7.1f
p48
sVelower
p49
V%10.4f
p50
sVglobal_lower_quanta
p51
V%15s
p52
sVdelta_air
p53
V%8.6f
p54
sVierr
p55
V%6s
p56
sVlocal_lower_quanta
p57
V%15s
p58
sVlocal_upper_quanta
p59
V%15s
p60
sViref
p61
V%12s
p62
sVa
V%10.3E
p63
sVglobal_upper_quanta
p64
V%15s
p65
sVsw
p66
V%10.3E
p67
sVn_air
p68
V%4.2f
p69
sVlocal_iso_id
p70
V%1d
p71
sVline_mixing_flag
p72
V%1s
p73
sVmolec_id
p74
V%2d
p75
sVgpp
p76
V%7.1f
p77
sVnu
p78
V%12.6f
p79
sVgamma_self
p80
V%5.3f
p81
ssVdefault
p82
(dp83
Vgamma_air
p84
F0
sVgp
p85
VFFF
p86
sVelower
p87
F0
sVglobal_lower_quanta
p88
V000
p89
sVdelta_air
p90
F0
sVierr
p91
VEEE
p92
sVlocal_lower_quanta
p93
V000
p94
sVlocal_upper_quanta
p95
V000
p96
sViref
p97
VEEE
p98
sVa
F0
sVglobal_upper_quanta
p99
V000
p100
sVsw
p101
F0
sVn_air
p102
F0
sVlocal_iso_id
p103
I0
sVline_mixing_flag
p104
VEEE
p105
sVmolec_id
p106
I0
sVgpp
p107
VFFF
p108
sVnu
p109
F0
sVgamma_self
p110
F0
ssVtable_type
p111
Vcolumn-fixed
p112
sVsize_in_bytes
p113
I-1
sVorder
p114
(lp115
Vmolec_id
p116
aVlocal_iso_id
p117
aVnu
p118
aVsw
p119
aVa
aVgamma_air
p120
aVgamma_self
p121
aVelower
p122
aVn_air
p123
aVdelta_air
p124
aVglobal_upper_quanta
p125
aVglobal_lower_quanta
p126
aVlocal_upper_quanta
p127
aVlocal_lower_quanta
p128
aVierr
p129
aViref
p130
aVline_mixing_flag
p131
aVgp
p132
aVgpp
p133
asVtable_name
p134
VCO
p135
sVnumber_of_rows
p136
I240
ssS'data'
p137
(dp138
Va
(lp139
F1.139
aF0.3619
aF1.149
aF0.3649
aF1.1579999999999999
aF0.3679
aF1.1679999999999999
aF0.37090000000000001
aF1.177
aF2.512
aF1.1870000000000001
aF0.37390000000000001
aF2.5339999999999998
aF1.1970000000000001
aF2.556
aF0.377
aF2.5779999999999998
aF1.2070000000000001
aF0.38009999999999999
aF2.6000000000000001
aF1.2170000000000001
aF0.38319999999999999
aF2.6230000000000002
aF1.2270000000000001
aF0.38640000000000002
aF2.6469999999999998
aF1.238
aF2.6699999999999999
aF0.3896
aF1.248
aF2.6949999999999998
aF0.39279999999999998
aF1.2589999999999999
aF2.7200000000000002
aF0.39610000000000001
aF1.27
aF2.746
aF0.39939999999999998
aF2.7719999999999998
aF1.2809999999999999
aF2.7999999999999998
aF0.40279999999999999
aF1.292
aF2.8290000000000002
aF1.3029999999999999
aF0.40620000000000001
aF2.859
aF1.3149999999999999
aF0.40960000000000002
aF2.8900000000000001
aF1.3260000000000001
aF0.41310000000000002
aF2.9239999999999999
aF1.3380000000000001
aF2.9609999999999999
aF0.41660000000000003
aF1.3500000000000001
aF3.0019999999999998
aF0.42020000000000002
aF3.0470000000000002
aF1.363
aF0.42380000000000001
aF3.1000000000000001
aF1.3759999999999999
aF3.165
aF0.4274
aF1.389
aF3.2480000000000002
aF0.43109999999999998
aF1.4019999999999999
aF3.367
aF1.4159999999999999
aF3.5619999999999998
aF0.43490000000000001
aF3.988
aF1.431
aF0.43869999999999998
aF6.0279999999999996
aF1.446
aF0.44259999999999999
aF1.4630000000000001
aF2.04
aF0.4466
aF1.48
aF2.4670000000000001
aF0.45069999999999999
aF2.6629999999999998
aF1.4990000000000001
aF2.7829999999999999
aF0.45479999999999998
aF1.5189999999999999
aF2.8679999999999999
aF1.542
aF0.45900000000000002
aF2.9340000000000002
aF2.9889999999999999
aF1.569
aF0.46339999999999998
aF3.0369999999999999
aF1.6020000000000001
aF3.0800000000000001
aF0.46779999999999999
aF1.6439999999999999
aF3.1200000000000001
aF0.47249999999999998
aF3.157
aF1.7050000000000001
aF3.1920000000000002
aF0.47720000000000001
aF1.804
aF3.226
aF2.02
aF3.2589999999999999
aF0.48220000000000002
aF3.2909999999999999
aF3.0529999999999999
aF0.4874
aF3.3220000000000001
aF3.3530000000000002
aF0.4929
aF3.383
aF1.034
aF3.4129999999999998
aF0.49880000000000002
aF1.25
aF3.4430000000000001
aF3.472
aF1.349
aF0.50509999999999999
aF3.5019999999999998
aF3.5310000000000001
aF1.4099999999999999
aF0.5121
aF3.5600000000000001
aF1.4530000000000001
aF3.589
aF0.52000000000000002
aF3.6179999999999999
aF1.4870000000000001
aF3.6469999999999998
aF3.6760000000000002
aF0.52910000000000001
aF1.5149999999999999
aF1.54
aF0.54020000000000001
aF1.5620000000000001
aF0.55459999999999998
aF1.5820000000000001
aF0.57489999999999997
aF1.601
aF1.619
aF0.60840000000000005
aF1.6359999999999999
aF0.68130000000000002
aF1.653
aF1.669
aF1.03
aF1.6850000000000001
aF1.7010000000000001
aF1.7170000000000001
aF0.34870000000000001
aF1.732
aF0.42180000000000001
aF1.7470000000000001
aF1.7629999999999999
aF0.45540000000000003
aF1.778
aF0.47599999999999998
aF1.7929999999999999
aF1.8080000000000001
aF0.49059999999999998
aF1.823
aF1.837
aF0.502
aF1.8520000000000001
aF1.867
aF0.51149999999999995
aF1.8819999999999999
aF1.897
aF0.51980000000000004
aF1.9119999999999999
aF1.927
aF0.52729999999999999
aF1.9419999999999999
aF1.9570000000000001
aF0.53420000000000001
aF1.972
aF1.9870000000000001
aF2.0019999999999998
aF0.54069999999999996
aF2.0169999999999999
aF2.032
aF2.048
aF0.54679999999999995
aF2.0630000000000002
aF2.0779999999999998
aF2.093
aF2.109
aF0.55269999999999997
aF0.5585
aF0.56410000000000005
aF0.56950000000000001
aF0.57489999999999997
aF0.58030000000000004
aF0.58550000000000002
aF0.5907
aF0.59589999999999999
aF0.60109999999999997
aF0.60619999999999996
aF0.61129999999999995
aF0.61650000000000005
aF0.62160000000000004
aF0.62670000000000003
aF0.63180000000000003
aF0.63690000000000002
aF0.64200000000000002
aF0.64710000000000001
aF0.65229999999999999
aF0.65739999999999998
aF0.66259999999999997
aF0.66769999999999996
aF0.67290000000000005
aF0.67810000000000004
aF0.68330000000000002
aF0.6885
aF0.69379999999999997
aF0.69899999999999995
aF0.70430000000000004
aF0.70960000000000001
aF0.71489999999999998
aF0.72019999999999995
aF0.72550000000000003
aF0.73080000000000001
aF0.73619999999999997
aF0.74160000000000004
aF0.76870000000000005
aF0.747
aF0.76329999999999998
aF0.75239999999999996
aF0.75780000000000003
asg120
(lp140
F0.042000000000000003
aF0.042000000000000003
aF0.042000000000000003
aF0.042000000000000003
aF0.042000000000000003
aF0.042000000000000003
aF0.042000000000000003
aF0.042000000000000003
aF0.042000000000000003
aF0.045699999999999998
aF0.042000000000000003
aF0.042000000000000003
aF0.046399999999999997
aF0.042000000000000003
aF0.046899999999999997
aF0.042000000000000003
aF0.047500000000000001
aF0.042500000000000003
aF0.042000000000000003
aF0.048399999999999999
aF0.042999999999999997
aF0.042000000000000003
aF0.049099999999999998
aF0.0436
aF0.042000000000000003
aF0.050200000000000002
aF0.0441
aF0.050299999999999997
aF0.042000000000000003
aF0.044600000000000001
aF0.051299999999999998
aF0.042000000000000003
aF0.045100000000000001
aF0.051900000000000002
aF0.042000000000000003
aF0.045699999999999998
aF0.052900000000000003
aF0.042000000000000003
aF0.053600000000000002
aF0.046399999999999997
aF0.0545
aF0.042000000000000003
aF0.046899999999999997
aF0.055199999999999999
aF0.047500000000000001
aF0.042500000000000003
aF0.055899999999999998
aF0.048399999999999999
aF0.042999999999999997
aF0.056599999999999998
aF0.049099999999999998
aF0.0436
aF0.057299999999999997
aF0.050200000000000002
aF0.0579
aF0.0441
aF0.050299999999999997
aF0.058700000000000002
aF0.044600000000000001
aF0.0596
aF0.051299999999999998
aF0.045100000000000001
aF0.0608
aF0.051900000000000002
aF0.0625
aF0.045699999999999998
aF0.052900000000000003
aF0.064899999999999999
aF0.046399999999999997
aF0.053600000000000002
aF0.067900000000000002
aF0.0545
aF0.071300000000000002
aF0.046899999999999997
aF0.075200000000000003
aF0.055199999999999999
aF0.047500000000000001
aF0.080500000000000002
aF0.055899999999999998
aF0.048399999999999999
aF0.056599999999999998
aF0.080399999999999999
aF0.049099999999999998
aF0.057299999999999997
aF0.075300000000000006
aF0.050200000000000002
aF0.071300000000000002
aF0.0579
aF0.067900000000000002
aF0.050299999999999997
aF0.058700000000000002
aF0.064799999999999996
aF0.0596
aF0.051299999999999998
aF0.062399999999999997
aF0.060699999999999997
aF0.0608
aF0.051900000000000002
aF0.059499999999999997
aF0.0625
aF0.058500000000000003
aF0.052900000000000003
aF0.064899999999999999
aF0.057799999999999997
aF0.053600000000000002
aF0.057099999999999998
aF0.067900000000000002
aF0.056399999999999999
aF0.0545
aF0.071300000000000002
aF0.0557
aF0.075200000000000003
aF0.055
aF0.055199999999999999
aF0.054199999999999998
aF0.080500000000000002
aF0.055899999999999998
aF0.053499999999999999
aF0.052600000000000001
aF0.056599999999999998
aF0.051799999999999999
aF0.080399999999999999
aF0.050999999999999997
aF0.057299999999999997
aF0.075300000000000006
aF0.050200000000000002
aF0.049500000000000002
aF0.071300000000000002
aF0.0579
aF0.048800000000000003
aF0.047500000000000001
aF0.067900000000000002
aF0.058700000000000002
aF0.046600000000000003
aF0.064799999999999996
aF0.046899999999999997
aF0.0596
aF0.046399999999999997
aF0.062399999999999997
aF0.045699999999999998
aF0.045100000000000001
aF0.0608
aF0.060699999999999997
aF0.059499999999999997
aF0.0625
aF0.058500000000000003
aF0.064899999999999999
aF0.057799999999999997
aF0.067900000000000002
aF0.057099999999999998
aF0.056399999999999999
aF0.071300000000000002
aF0.0557
aF0.075200000000000003
aF0.055
aF0.054199999999999998
aF0.080500000000000002
aF0.053499999999999999
aF0.052600000000000001
aF0.051799999999999999
aF0.080399999999999999
aF0.050999999999999997
aF0.075300000000000006
aF0.050200000000000002
aF0.049500000000000002
aF0.071300000000000002
aF0.048800000000000003
aF0.067900000000000002
aF0.047500000000000001
aF0.046600000000000003
aF0.064799999999999996
aF0.046899999999999997
aF0.046399999999999997
aF0.062399999999999997
aF0.045699999999999998
aF0.045100000000000001
aF0.060699999999999997
aF0.044600000000000001
aF0.0441
aF0.059499999999999997
aF0.0436
aF0.042999999999999997
aF0.058500000000000003
aF0.042500000000000003
aF0.042000000000000003
aF0.057799999999999997
aF0.042000000000000003
aF0.042000000000000003
aF0.042000000000000003
aF0.057099999999999998
aF0.042000000000000003
aF0.042000000000000003
aF0.042000000000000003
aF0.056399999999999999
aF0.042000000000000003
aF0.042000000000000003
aF0.042000000000000003
aF0.042000000000000003
aF0.0557
aF0.055
aF0.054199999999999998
aF0.053499999999999999
aF0.052600000000000001
aF0.051799999999999999
aF0.050999999999999997
aF0.050200000000000002
aF0.049500000000000002
aF0.048800000000000003
aF0.047500000000000001
aF0.046600000000000003
aF0.046899999999999997
aF0.046399999999999997
aF0.045699999999999998
aF0.045100000000000001
aF0.044600000000000001
aF0.0441
aF0.0436
aF0.042999999999999997
aF0.042500000000000003
aF0.042000000000000003
aF0.042000000000000003
aF0.042000000000000003
aF0.042000000000000003
aF0.042000000000000003
aF0.042000000000000003
aF0.042000000000000003
aF0.042000000000000003
aF0.042000000000000003
aF0.042000000000000003
aF0.042000000000000003
aF0.042000000000000003
aF0.042000000000000003
aF0.042000000000000003
aF0.042000000000000003
aF0.042000000000000003
aF0.042000000000000003
aF0.042000000000000003
aF0.042000000000000003
aF0.042000000000000003
aF0.042000000000000003
asg130
(lp141
S' 5 8 3 3 2 1'
p142
aS' 5 8 2 2 2 1'
p143
aS' 5 8 3 3 2 1'
p144
aS' 5 8 2 2 2 1'
p145
aS' 5 8 3 3 2 1'
p146
aS' 5 8 2 2 2 1'
p147
aS' 5 8 3 3 2 1'
p148
aS' 5 8 2 2 2 1'
p149
aS' 5 8 3 3 2 1'
p150
aS' 5 8 3 3 2 7'
p151
aS' 5 8 3 3 2 1'
p152
aS' 5 8 2 2 2 1'
p153
aS' 5 8 3 3 2 7'
p154
aS' 5 8 3 3 2 1'
p155
aS' 5 8 3 3 2 7'
p156
aS' 5 8 2 2 2 1'
p157
aS' 5 8 3 3 2 7'
p158
aS' 5 8 3 3 2 1'
p159
aS' 5 8 2 2 2 1'
p160
aS' 5 8 3 3 2 7'
p161
aS' 5 8 3 3 2 1'
p162
aS' 5 8 2 2 2 1'
p163
aS' 5 8 3 3 2 7'
p164
aS' 5 8 3 3 2 1'
p165
aS' 5 8 2 2 2 1'
p166
aS' 5 8 3 3 2 7'
p167
aS' 5 8 3 3 2 1'
p168
aS' 5 8 3 3 2 7'
p169
aS' 5 8 2 2 2 1'
p170
aS' 5 8 3 3 2 1'
p171
aS' 5 8 3 3 2 7'
p172
aS' 5 8 2 2 2 1'
p173
aS' 5 8 3 3 2 1'
p174
aS' 5 8 3 3 2 7'
p175
aS' 5 8 2 2 2 1'
p176
aS' 5 8 3 3 2 1'
p177
aS' 5 8 3 3 2 7'
p178
aS' 5 8 2 2 2 1'
p179
aS' 5 8 3 3 2 7'
p180
aS' 5 8 3 3 2 1'
p181
aS' 5 8 3 3 2 7'
p182
aS' 5 8 2 2 2 1'
p183
aS' 5 8 3 3 2 1'
p184
aS' 5 8 3 3 2 7'
p185
aS' 5 8 3 3 2 1'
p186
aS' 5 8 2 2 2 1'
p187
aS' 5 8 3 3 2 7'
p188
aS' 5 8 3 3 2 3'
p189
aS' 5 8 2 2 2 1'
p190
aS' 5 8 3 3 2 7'
p191
aS' 5 8 3 3 2 3'
p192
aS' 5 8 2 2 2 1'
p193
aS' 5 8 3 3 2 7'
p194
aS' 5 8 3 3 2 3'
p195
aS' 5 8 3 3 2 7'
p196
aS' 5 8 2 2 2 1'
p197
aS' 5 8 3 3 2 3'
p198
aS' 5 8 3 3 2 7'
p199
aS' 6 8 2 3 2 1'
p200
aS' 5 8 3 3 2 7'
p201
aS' 5 8 3 3 2 3'
p202
aS' 6 8 2 3 2 1'
p203
aS' 5 8 3 3 2 7'
p204
aS' 5 8 3 3 2 3'
p205
aS' 5 8 3 3 2 7'
p206
aS' 6 8 2 3 2 1'
p207
aS' 5 8 3 3 2 3'
p208
aS' 5 8 3 3 2 7'
p209
aS' 6 8 2 3 2 1'
p210
aS' 5 8 3 3 2 3'
p211
aS' 5 8 3 3 2 7'
p212
aS' 5 8 3 3 2 3'
p213
aS' 5 8 3 3 2 7'
p214
aS' 6 8 2 3 2 1'
p215
aS' 5 8 3 3 2 7'
p216
aS' 5 8 3 3 2 3'
p217
aS' 6 8 2 3 2 1'
p218
aS' 5 8 3 3 2 7'
p219
aS' 5 8 3 3 2 3'
p220
aS' 6 8 3 3 2 3'
p221
aS' 5 8 3 3 2 3'
p222
aS' 5 8 3 3 2 7'
p223
aS' 6 8 3 3 2 3'
p224
aS' 5 8 3 3 2 3'
p225
aS' 5 8 3 3 2 7'
p226
aS' 6 8 3 3 2 3'
p227
aS' 5 8 3 3 2 7'
p228
aS' 5 8 3 3 2 3'
p229
aS' 5 8 3 3 2 7'
p230
aS' 6 8 3 3 2 3'
p231
aS' 5 8 3 3 2 3'
p232
aS' 5 8 3 3 2 7'
p233
aS' 5 8 3 3 2 3'
p234
aS' 6 8 3 3 2 3'
p235
aS' 5 8 3 3 2 7'
p236
aS' 5 8 3 3 2 7'
p237
aS' 5 8 3 3 2 3'
p238
aS' 6 8 3 3 2 3'
p239
aS' 5 8 3 3 2 7'
p240
aS' 5 8 3 3 2 3'
p241
aS' 5 8 3 3 2 7'
p242
aS' 6 8 3 3 2 3'
p243
aS' 5 8 3 3 2 3'
p244
aS' 5 8 3 3 2 7'
p245
aS' 6 8 3 3 2 3'
p246
aS' 5 8 3 3 2 7'
p247
aS' 5 8 3 3 2 3'
p248
aS' 5 8 3 3 2 7'
p249
aS' 6 8 3 3 2 3'
p250
aS' 5 8 3 3 2 3'
p251
aS' 5 8 3 3 2 7'
p252
aS' 5 8 3 3 2 3'
p253
aS' 5 8 3 3 2 7'
p254
aS' 6 8 3 3 2 3'
p255
aS' 5 8 3 3 2 7'
p256
aS' 5 8 3 3 2 3'
p257
aS' 6 8 3 3 2 3'
p258
aS' 5 8 3 3 2 7'
p259
aS' 5 8 3 3 2 7'
p260
aS' 6 8 3 3 2 3'
p261
aS' 5 8 3 3 2 7'
p262
aS' 5 8 3 3 2 3'
p263
aS' 5 8 3 3 2 7'
p264
aS' 6 8 3 3 2 3'
p265
aS' 5 8 3 3 2 3'
p266
aS' 5 8 3 3 2 7'
p267
aS' 5 8 3 3 2 7'
p268
aS' 5 8 3 3 2 3'
p269
aS' 6 8 3 3 2 3'
p270
aS' 5 8 3 3 2 7'
p271
aS' 5 8 3 3 2 7'
p272
aS' 5 8 3 3 2 3'
p273
aS' 6 8 3 3 2 3'
p274
aS' 5 8 3 3 2 7'
p275
aS' 5 8 3 3 2 3'
p276
aS' 5 8 3 3 2 7'
p277
aS' 6 8 3 3 2 3'
p278
aS' 5 8 3 3 2 7'
p279
aS' 5 8 3 3 2 3'
p280
aS' 5 8 3 3 2 7'
p281
aS' 5 8 3 3 2 7'
p282
aS' 6 8 3 3 2 3'
p283
aS' 5 8 3 3 2 3'
p284
aS' 5 8 3 3 2 3'
p285
aS' 6 8 3 3 2 3'
p286
aS' 5 8 3 3 2 3'
p287
aS' 6 8 3 3 2 3'
p288
aS' 5 8 3 3 2 3'
p289
aS' 6 8 3 3 2 3'
p290
aS' 5 8 3 3 2 3'
p291
aS' 5 8 3 3 2 3'
p292
aS' 6 8 3 3 2 3'
p293
aS' 5 8 3 3 2 3'
p294
aS' 6 8 3 3 2 3'
p295
aS' 5 8 3 3 2 3'
p296
aS' 5 8 3 3 2 3'
p297
aS' 6 8 3 3 2 3'
p298
aS' 5 8 3 3 2 3'
p299
aS' 5 8 3 3 2 3'
p300
aS' 5 8 3 3 2 3'
p301
aS' 6 8 3 3 2 3'
p302
aS' 5 8 3 3 2 3'
p303
aS' 6 8 3 3 2 3'
p304
aS' 5 8 3 3 2 3'
p305
aS' 5 8 3 3 2 3'
p306
aS' 6 8 3 3 2 3'
p307
aS' 5 8 3 3 2 3'
p308
aS' 6 8 3 3 2 3'
p309
aS' 5 8 3 3 2 3'
p310
aS' 5 8 3 3 2 3'
p311
aS' 6 8 3 3 2 3'
p312
aS' 5 8 3 3 2 1'
p313
aS' 5 8 3 3 2 1'
p314
aS' 6 8 3 3 2 3'
p315
aS' 5 8 3 3 2 1'
p316
aS' 5 8 3 3 2 1'
p317
aS' 6 8 3 3 2 3'
p318
aS' 5 8 3 3 2 1'
p319
aS' 5 8 3 3 2 1'
p320
aS' 6 8 3 3 2 3'
p321
aS' 5 8 3 3 2 1'
p322
aS' 5 8 3 3 2 1'
p323
aS' 6 8 3 3 2 3'
p324
aS' 5 8 3 3 2 1'
p325
aS' 5 8 3 3 2 1'
p326
aS' 6 8 3 3 2 3'
p327
aS' 5 8 3 3 2 1'
p328
aS' 5 8 3 3 2 1'
p329
aS' 5 8 3 3 2 1'
p330
aS' 6 8 3 3 2 3'
p331
aS' 5 8 3 3 2 1'
p332
aS' 5 8 3 3 2 1'
p333
aS' 5 8 3 3 2 1'
p334
aS' 6 8 3 3 2 3'
p335
aS' 5 8 3 3 2 1'
p336
aS' 5 8 3 3 2 1'
p337
aS' 5 8 3 3 2 1'
p338
aS' 5 8 3 3 2 1'
p339
aS' 6 8 3 3 2 3'
p340
aS' 6 8 3 3 2 3'
p341
aS' 6 8 3 3 2 3'
p342
aS' 6 8 3 3 2 3'
p343
aS' 6 8 3 3 2 3'
p344
aS' 6 8 3 3 2 3'
p345
aS' 6 8 3 3 2 3'
p346
aS' 6 8 3 3 2 3'
p347
aS' 6 8 3 3 2 3'
p348
aS' 6 8 3 3 2 3'
p349
aS' 6 8 3 3 2 3'
p350
aS' 6 8 3 3 2 3'
p351
aS' 6 8 2 3 2 1'
p352
aS' 6 8 2 3 2 1'
p353
aS' 6 8 2 3 2 1'
p354
aS' 6 8 2 3 2 1'
p355
aS' 6 8 2 3 2 1'
p356
aS' 6 8 2 3 2 1'
p357
aS' 6 8 2 3 2 1'
p358
aS' 6 8 2 2 2 1'
p359
aS' 6 8 2 2 2 1'
p360
aS' 6 8 2 2 2 1'
p361
aS' 6 8 2 2 2 1'
p362
aS' 6 8 2 2 2 1'
p363
aS' 5 8 2 2 2 1'
p364
aS' 5 8 2 2 2 1'
p365
aS' 5 8 2 2 2 1'
p366
aS' 5 8 2 2 2 1'
p367
aS' 5 8 2 2 2 1'
p368
aS' 5 8 2 2 2 1'
p369
aS' 5 8 2 2 2 1'
p370
aS' 5 8 2 2 2 1'
p371
aS' 5 8 2 2 2 1'
p372
aS' 5 8 2 2 2 1'
p373
aS' 5 8 2 2 2 1'
p374
aS' 5 8 2 2 2 1'
p375
aS' 5 8 2 2 2 1'
p376
aS' 5 8 2 2 2 1'
p377
aS' 5 8 2 2 2 1'
p378
aS' 5 8 2 2 2 1'
p379
aS' 5 8 2 2 2 1'
p380
aS' 5 8 2 2 2 1'
p381
asg132
(lp382
F79
aF93
aF77
aF91
aF75
aF89
aF73
aF87
aF71
aF53
aF69
aF85
aF51
aF67
aF49
aF83
aF47
aF65
aF81
aF45
aF63
aF79
aF43
aF61
aF77
aF41
aF59
aF39
aF75
aF57
aF37
aF73
aF55
aF35
aF71
aF53
aF33
aF69
aF31
aF51
aF29
aF67
aF49
aF27
aF47
aF65
aF25
aF45
aF63
aF23
aF43
aF61
aF21
aF41
aF19
aF59
aF39
aF17
aF57
aF15
aF37
aF55
aF13
aF35
aF11
aF53
aF33
aF9
aF51
aF31
aF7
aF29
aF5
aF49
aF3
aF27
aF47
aF1
aF25
aF45
aF23
aF3
aF43
aF21
aF5
aF41
aF7
aF19
aF9
aF39
aF17
aF11
aF15
aF37
aF13
aF15
aF13
aF35
aF17
aF11
aF19
aF33
aF9
aF21
aF31
aF23
aF7
aF25
aF29
aF5
aF27
aF3
aF29
aF27
aF31
aF1
aF25
aF33
aF35
aF23
aF37
aF3
aF39
aF21
aF5
aF41
aF43
aF7
aF19
aF45
aF47
aF9
aF17
aF49
aF11
aF51
aF15
aF53
aF13
aF55
aF57
aF13
aF15
aF17
aF11
aF19
aF9
aF21
aF7
aF23
aF25
aF5
aF27
aF3
aF29
aF31
aF1
aF33
aF35
aF37
aF3
aF39
aF5
aF41
aF43
aF7
aF45
aF9
aF47
aF49
aF11
aF51
aF53
aF13
aF55
aF57
aF15
aF59
aF61
aF17
aF63
aF65
aF19
aF67
aF69
aF21
aF71
aF73
aF75
aF23
aF77
aF79
aF81
aF25
aF83
aF85
aF87
aF89
aF27
aF29
aF31
aF33
aF35
aF37
aF39
aF41
aF43
aF45
aF47
aF49
aF51
aF53
aF55
aF57
aF59
aF61
aF63
aF65
aF67
aF69
aF71
aF73
aF75
aF77
aF79
aF81
aF83
aF85
aF87
aF89
aF91
aF93
aF95
aF97
aF99
aF109
aF101
aF107
aF103
aF105
asg122
(lp383
F5251.0769
aF4306.1374999999998
aF5100.2381999999998
aF4127.9539000000004
aF4953.0954000000002
aF3953.4573999999998
aF4809.6540999999997
aF3782.6545999999998
aF4669.9200000000001
aF5683.5351000000001
aF4533.8982999999998
aF3615.5520999999999
aF5582.0901000000003
aF4401.5942999999997
aF5484.3687
aF3452.1563000000001
aF5390.3747000000003
aF4273.0132999999996
aF3292.4733999999999
aF5300.1117000000004
aF4148.1601000000001
aF3136.5095000000001
aF5213.5832
aF4027.0394999999999
aF2984.2707
aF5130.7925999999998
aF3909.6561999999999
aF5051.7431999999999
aF2835.7627000000002
aF3796.0149000000001
aF4976.4380000000001
aF2690.9913000000001
aF3686.1197999999999
aF4904.8798999999999
aF2549.962
aF3579.9751000000001
aF4837.0717000000004
aF2412.6801
aF4773.0160999999998
aF3477.5850999999998
aF4712.7156000000004
aF2279.1511
aF3378.9537
aF4656.1724000000004
aF3284.0846000000001
aF2149.3798999999999
aF4603.3888999999999
aF3192.9814999999999
aF2023.3715
aF4554.3670000000002
aF3105.6478999999999
aF1901.1307999999999
aF4509.1088
aF3022.0873000000001
aF4467.6157999999996
aF1782.6623999999999
aF2942.3027999999999
aF4429.8897999999999
aF1667.9709
aF4395.9322000000002
aF2866.2975000000001
aF1557.0607
aF4365.7443000000003
aF2794.0743000000002
aF4339.3274000000001
aF1449.9358999999999
aF2725.6361000000002
aF4316.6823999999997
aF1346.6007999999999
aF2660.9854999999998
aF4297.8101999999999
aF2600.1248999999998
aF4282.7115999999996
aF1247.0591999999999
aF4271.3870999999999
aF2543.0567000000001
aF1151.3150000000001
aF4263.8371999999999
aF2489.7831000000001
aF1059.3717999999999
aF2440.3062
aF4260.0622000000003
aF971.23320000000001
aF2394.6279
aF4263.8371999999999
aF886.90239999999994
aF4271.3870999999999
aF2352.7498999999998
aF4282.7115999999996
aF806.38279999999997
aF2314.6738999999998
aF4297.8101999999999
aF2280.4011999999998
aF729.67740000000003
aF4316.6823999999997
aF4339.3274000000001
aF2249.9333999999999
aF656.78920000000005
aF4365.7443000000003
aF2223.2714000000001
aF4395.9322000000002
aF587.72090000000003
aF2200.4164000000001
aF4429.8897999999999
aF522.4751
aF4467.6157999999996
aF2181.3692000000001
aF4509.1088
aF461.05439999999999
aF2166.1305000000002
aF4554.3670000000002
aF2154.701
aF4603.3888999999999
aF403.46120000000002
aF4656.1724000000004
aF2147.0810999999999
aF349.69749999999999
aF4712.7156000000004
aF4773.0160999999998
aF299.76560000000001
aF4837.0717000000004
aF2143.2710999999999
aF4904.8798999999999
aF253.66720000000001
aF2147.0810999999999
aF4976.4380000000001
aF5051.7431999999999
aF2154.701
aF211.4041
aF5130.7925999999998
aF5213.5832
aF2166.1305000000002
aF172.97800000000001
aF5300.1117000000004
aF2181.3692000000001
aF5390.3747000000003
aF138.3904
aF5484.3687
aF2200.4164000000001
aF5582.0901000000003
aF5683.5351000000001
aF107.64239999999999
aF2223.2714000000001
aF2249.9333999999999
aF80.735399999999998
aF2280.4011999999998
aF57.670400000000001
aF2314.6738999999998
aF38.448099999999997
aF2352.7498999999998
aF2394.6279
aF23.069500000000001
aF2440.3062
aF11.535
aF2489.7831000000001
aF2543.0567000000001
aF3.8450000000000002
aF2600.1248999999998
aF2660.9854999999998
aF2725.6361000000002
aF0
aF2794.0743000000002
aF3.8450000000000002
aF2866.2975000000001
aF2942.3027999999999
aF11.535
aF3022.0873000000001
aF23.069500000000001
aF3105.6478999999999
aF3192.9814999999999
aF38.448099999999997
aF3284.0846000000001
aF3378.9537
aF57.670400000000001
aF3477.5850999999998
aF3579.9751000000001
aF80.735399999999998
aF3686.1197999999999
aF3796.0149000000001
aF107.64239999999999
aF3909.6561999999999
aF4027.0394999999999
aF138.3904
aF4148.1601000000001
aF4273.0132999999996
aF172.97800000000001
aF4401.5942999999997
aF4533.8982999999998
aF4669.9200000000001
aF211.4041
aF4809.6540999999997
aF4953.0954000000002
aF5100.2381999999998
aF253.66720000000001
aF5251.0769
aF5405.6055999999999
aF5563.8184000000001
aF5725.7089999999998
aF299.76560000000001
aF349.69749999999999
aF403.46120000000002
aF461.05439999999999
aF522.4751
aF587.72090000000003
aF656.78920000000005
aF729.67740000000003
aF806.38279999999997
aF886.90239999999994
aF971.23320000000001
aF1059.3717999999999
aF1151.3150000000001
aF1247.0591999999999
aF1346.6007999999999
aF1449.9358999999999
aF1557.0607
aF1667.9709
aF1782.6623999999999
aF1901.1307999999999
aF2023.3715
aF2149.3798999999999
aF2279.1511
aF2412.6801
aF2549.962
aF2690.9913000000001
aF2835.7627000000002
aF2984.2707
aF3136.5095000000001
aF3292.4733999999999
aF3452.1563000000001
aF3615.5520999999999
aF3782.6545999999998
aF3953.4573999999998
aF4127.9539000000004
aF4306.1374999999998
aF4488.0011999999997
aF5452.2732999999998
aF4673.5380999999998
aF5252.1162000000004
aF4862.7411000000002
aF5055.6028999999999
asg125
(lp384
S'              3'
p385
aS'              2'
p386
aS'              3'
p387
aS'              2'
p388
aS'              3'
p389
aS'              2'
p390
aS'              3'
p391
aS'              2'
p392
aS'              3'
p393
aS'              4'
p394
aS'              3'
p395
aS'              2'
p396
aS'              4'
p397
aS'              3'
p398
aS'              4'
p399
aS'              2'
p400
aS'              4'
p401
aS'              3'
p402
aS'              2'
p403
aS'              4'
p404
aS'              3'
p405
aS'              2'
p406
aS'              4'
p407
aS'              3'
p408
aS'              2'
p409
aS'              4'
p410
aS'              3'
p411
aS'              4'
p412
aS'              2'
p413
aS'              3'
p414
aS'              4'
p415
aS'              2'
p416
aS'              3'
p417
aS'              4'
p418
aS'              2'
p419
aS'              3'
p420
aS'              4'
p421
aS'              2'
p422
aS'              4'
p423
aS'              3'
p424
aS'              4'
p425
aS'              2'
p426
aS'              3'
p427
aS'              4'
p428
aS'              3'
p429
aS'              2'
p430
aS'              4'
p431
aS'              3'
p432
aS'              2'
p433
aS'              4'
p434
aS'              3'
p435
aS'              2'
p436
aS'              4'
p437
aS'              3'
p438
aS'              4'
p439
aS'              2'
p440
aS'              3'
p441
aS'              4'
p442
aS'              2'
p443
aS'              4'
p444
aS'              3'
p445
aS'              2'
p446
aS'              4'
p447
aS'              3'
p448
aS'              4'
p449
aS'              2'
p450
aS'              3'
p451
aS'              4'
p452
aS'              2'
p453
aS'              3'
p454
aS'              4'
p455
aS'              3'
p456
aS'              4'
p457
aS'              2'
p458
aS'              4'
p459
aS'              3'
p460
aS'              2'
p461
aS'              4'
p462
aS'              3'
p463
aS'              2'
p464
aS'              3'
p465
aS'              4'
p466
aS'              2'
p467
aS'              3'
p468
aS'              4'
p469
aS'              2'
p470
aS'              4'
p471
aS'              3'
p472
aS'              4'
p473
aS'              2'
p474
aS'              3'
p475
aS'              4'
p476
aS'              3'
p477
aS'              2'
p478
aS'              4'
p479
aS'              4'
p480
aS'              3'
p481
aS'              2'
p482
aS'              4'
p483
aS'              3'
p484
aS'              4'
p485
aS'              2'
p486
aS'              3'
p487
aS'              4'
p488
aS'              2'
p489
aS'              4'
p490
aS'              3'
p491
aS'              4'
p492
aS'              2'
p493
aS'              3'
p494
aS'              4'
p495
aS'              3'
p496
aS'              4'
p497
aS'              2'
p498
aS'              4'
p499
aS'              3'
p500
aS'              2'
p501
aS'              4'
p502
aS'              4'
p503
aS'              2'
p504
aS'              4'
p505
aS'              3'
p506
aS'              4'
p507
aS'              2'
p508
aS'              3'
p509
aS'              4'
p510
aS'              4'
p511
aS'              3'
p512
aS'              2'
p513
aS'              4'
p514
aS'              4'
p515
aS'              3'
p516
aS'              2'
p517
aS'              4'
p518
aS'              3'
p519
aS'              4'
p520
aS'              2'
p521
aS'              4'
p522
aS'              3'
p523
aS'              4'
p524
aS'              4'
p525
aS'              2'
p526
aS'              3'
p527
aS'              3'
p528
aS'              2'
p529
aS'              3'
p530
aS'              2'
p531
aS'              3'
p532
aS'              2'
p533
aS'              3'
p534
aS'              3'
p535
aS'              2'
p536
aS'              3'
p537
aS'              2'
p538
aS'              3'
p539
aS'              3'
p540
aS'              2'
p541
aS'              3'
p542
aS'              3'
p543
aS'              3'
p544
aS'              2'
p545
aS'              3'
p546
aS'              2'
p547
aS'              3'
p548
aS'              3'
p549
aS'              2'
p550
aS'              3'
p551
aS'              2'
p552
aS'              3'
p553
aS'              3'
p554
aS'              2'
p555
aS'              3'
p556
aS'              3'
p557
aS'              2'
p558
aS'              3'
p559
aS'              3'
p560
aS'              2'
p561
aS'              3'
p562
aS'              3'
p563
aS'              2'
p564
aS'              3'
p565
aS'              3'
p566
aS'              2'
p567
aS'              3'
p568
aS'              3'
p569
aS'              2'
p570
aS'              3'
p571
aS'              3'
p572
aS'              3'
p573
aS'              2'
p574
aS'              3'
p575
aS'              3'
p576
aS'              3'
p577
aS'              2'
p578
aS'              3'
p579
aS'              3'
p580
aS'              3'
p581
aS'              3'
p582
aS'              2'
p583
aS'              2'
p584
aS'              2'
p585
aS'              2'
p586
aS'              2'
p587
aS'              2'
p588
aS'              2'
p589
aS'              2'
p590
aS'              2'
p591
aS'              2'
p592
aS'              2'
p593
aS'              2'
p594
aS'              2'
p595
aS'              2'
p596
aS'              2'
p597
aS'              2'
p598
aS'              2'
p599
aS'              2'
p600
aS'              2'
p601
aS'              2'
p602
aS'              2'
p603
aS'              2'
p604
aS'              2'
p605
aS'              2'
p606
aS'              2'
p607
aS'              2'
p608
aS'              2'
p609
aS'              2'
p610
aS'              2'
p611
aS'              2'
p612
aS'              2'
p613
aS'              2'
p614
aS'              2'
p615
aS'              2'
p616
aS'              2'
p617
aS'              2'
p618
aS'              2'
p619
aS'              2'
p620
aS'              2'
p621
aS'              2'
p622
aS'              2'
p623
aS'              2'
p624
asg119
(lp625
F5.6330000000000003e-31
aF2.0760000000000001e-29
aF1.1490000000000001e-30
aF4.8540000000000002e-29
aF2.2990000000000002e-30
aF1.114e-28
aF4.5170000000000002e-30
aF2.5099999999999998e-28
aF8.7099999999999996e-30
aF1.005e-31
aF1.6480000000000001e-29
aF5.5509999999999996e-28
aF1.592e-31
aF3.061e-29
aF2.4749999999999999e-31
aF1.205e-27
aF3.7710000000000002e-31
aF5.5769999999999995e-29
aF2.5689999999999999e-27
aF5.6330000000000003e-31
aF9.9700000000000006e-29
aF5.374e-27
aF8.2469999999999992e-31
aF1.749e-28
aF1.103e-26
aF1.183e-30
aF3.0090000000000002e-28
aF1.6639999999999998e-30
aF2.223e-26
aF5.0799999999999998e-28
aF2.2909999999999999e-30
aF4.3969999999999999e-26
aF8.4100000000000009e-28
aF3.09e-30
aF8.5319999999999997e-26
aF1.365e-27
aF4.0789999999999998e-30
aF1.625e-25
aF5.2700000000000003e-30
aF2.1740000000000001e-27
aF6.6589999999999994e-30
aF3.0350000000000001e-25
aF3.3939999999999997e-27
aF8.225e-30
aF5.1929999999999997e-27
aF5.5629999999999999e-25
aF9.9260000000000002e-30
aF7.7900000000000006e-27
aF9.9999999999999992e-25
aF1.1690000000000001e-29
aF1.1450000000000001e-26
aF1.7640000000000001e-24
aF1.3429999999999999e-29
aF1.6499999999999999e-26
aF1.5019999999999999e-29
aF3.0520000000000002e-24
aF2.328e-26
aF1.6329999999999999e-29
aF5.1789999999999998e-24
aF1.7209999999999999e-29
aF3.2169999999999998e-26
aF8.6169999999999993e-24
aF1.754e-29
aF4.353e-26
aF1.7190000000000001e-29
aF1.4060000000000001e-23
aF5.7640000000000004e-26
aF1.6080000000000001e-29
aF2.249e-23
aF7.4690000000000002e-26
aF1.4180000000000001e-29
aF9.4640000000000003e-26
aF1.151e-29
aF3.5259999999999999e-23
aF8.1569999999999995e-30
aF1.1719999999999999e-25
aF5.4199999999999998e-23
aF4.2559999999999998e-30
aF1.4179999999999999e-25
aF8.164e-23
aF1.6740000000000001e-25
aF4.3849999999999999e-30
aF1.2050000000000001e-22
aF1.9270000000000001e-25
aF8.6609999999999996e-30
aF1.742e-22
aF1.26e-29
aF2.1589999999999999e-25
aF1.5990000000000001e-29
aF2.4680000000000001e-22
aF2.3520000000000002e-25
aF1.8690000000000001e-29
aF2.4829999999999999e-25
aF3.4219999999999998e-22
aF2.0580000000000001e-29
aF2.164e-29
aF2.5340000000000002e-25
aF4.6459999999999997e-22
aF2.1880000000000001e-29
aF2.4869999999999998e-25
aF2.1380000000000001e-29
aF6.1720000000000004e-22
aF2.3289999999999998e-25
aF2.0270000000000001e-29
aF8.0219999999999999e-22
aF1.8670000000000001e-29
aF2.0559999999999999e-25
aF1.675e-29
aF1.019e-21
aF1.6700000000000001e-25
aF1.465e-29
aF1.1840000000000001e-25
aF1.251e-29
aF1.266e-21
aF1.043e-29
aF6.1810000000000002e-26
aF1.5349999999999999e-21
aF8.5069999999999995e-30
aF6.7850000000000001e-30
aF1.8159999999999998e-21
aF5.2950000000000003e-30
aF6.3709999999999996e-26
aF4.0450000000000002e-30
aF2.0950000000000002e-21
aF1.2580000000000001e-25
aF3.0259999999999999e-30
aF2.217e-30
aF1.8300000000000001e-25
aF2.353e-21
aF1.5919999999999999e-30
aF1.12e-30
aF2.3219999999999999e-25
aF2.567e-21
aF7.721e-31
aF2.7110000000000001e-25
aF5.2199999999999996e-31
aF2.7149999999999999e-21
aF3.46e-31
aF2.9839999999999998e-25
aF2.249e-31
aF1.4330000000000001e-31
aF2.775e-21
aF3.1339999999999999e-25
aF3.1660000000000002e-25
aF2.7269999999999999e-21
aF3.09e-25
aF2.5570000000000001e-21
aF2.924e-25
aF2.259e-21
aF2.6900000000000002e-25
aF2.4090000000000001e-25
aF1.837e-21
aF2.103e-25
aF1.3030000000000001e-21
aF1.792e-25
aF1.4909999999999999e-25
aF6.8019999999999998e-22
aF1.213e-25
aF9.647e-26
aF7.5079999999999996e-26
aF7.0140000000000001e-22
aF5.7180000000000001e-26
aF1.385e-21
aF4.2640000000000001e-26
aF3.1139999999999999e-26
aF2.0139999999999999e-21
aF2.2279999999999999e-26
aF2.5539999999999999e-21
aF1.5619999999999999e-26
aF1.0730000000000001e-26
aF2.9809999999999998e-21
aF7.2239999999999998e-27
aF4.7680000000000002e-27
aF3.2779999999999998e-21
aF3.086e-27
aF1.958e-27
aF3.4400000000000003e-21
aF1.2189999999999999e-27
aF7.4369999999999998e-28
aF3.471e-21
aF4.4529999999999998e-28
aF2.615e-28
aF3.3840000000000001e-21
aF1.507e-28
aF8.5170000000000003e-29
aF3.198e-21
aF4.7239999999999999e-29
aF2.5710000000000002e-29
aF1.3729999999999999e-29
aF2.9370000000000001e-21
aF7.2000000000000006e-30
aF3.7039999999999997e-30
aF1.871e-30
aF2.6249999999999999e-21
aF9.2729999999999993e-31
aF4.5130000000000004e-31
aF2.1559999999999999e-31
aF1.0109999999999999e-31
aF2.288e-21
aF1.9450000000000001e-21
aF1.6150000000000001e-21
aF1.31e-21
aF1.04e-21
aF8.0669999999999999e-22
aF6.1260000000000003e-22
aF4.5540000000000005e-22
aF3.3150000000000001e-22
aF2.363e-22
aF1.6510000000000001e-22
aF1.13e-22
aF7.5759999999999994e-23
aF4.9800000000000002e-23
aF3.2090000000000002e-23
aF2.0270000000000001e-23
aF1.256e-23
aF7.6269999999999995e-24
aF4.5430000000000002e-24
aF2.6539999999999998e-24
aF1.5209999999999999e-24
aF8.5519999999999997e-25
aF4.7170000000000004e-25
aF2.5520000000000001e-25
aF1.3550000000000001e-25
aF7.0599999999999995e-26
aF3.6100000000000001e-26
aF1.8109999999999999e-26
aF8.9170000000000001e-27
aF4.3100000000000003e-27
aF2.0439999999999999e-27
aF9.5189999999999999e-28
aF4.3509999999999999e-28
aF1.9519999999999999e-28
aF8.6010000000000005e-29
aF3.7199999999999997e-29
aF1.5800000000000001e-29
aF1.661e-31
aF6.5880000000000002e-30
aF4.2840000000000003e-31
aF2.6980000000000002e-30
aF1.085e-30
asg123
(lp626
F0.69999999999999996
aF0.73999999999999999
aF0.69999999999999996
aF0.73999999999999999
aF0.69999999999999996
aF0.73999999999999999
aF0.69999999999999996
aF0.73999999999999999
aF0.69999999999999996
aF0.69999999999999996
aF0.69999999999999996
aF0.73999999999999999
aF0.70999999999999996
aF0.69999999999999996
aF0.70999999999999996
aF0.73999999999999999
aF0.71999999999999997
aF0.69999999999999996
aF0.73999999999999999
aF0.71999999999999997
aF0.69999999999999996
aF0.73999999999999999
aF0.72999999999999998
aF0.69999999999999996
aF0.73999999999999999
aF0.72999999999999998
aF0.69999999999999996
aF0.73999999999999999
aF0.73999999999999999
aF0.69999999999999996
aF0.73999999999999999
aF0.73999999999999999
aF0.69999999999999996
aF0.75
aF0.73999999999999999
aF0.69999999999999996
aF0.75
aF0.73999999999999999
aF0.76000000000000001
aF0.70999999999999996
aF0.76000000000000001
aF0.73999999999999999
aF0.70999999999999996
aF0.77000000000000002
aF0.71999999999999997
aF0.73999999999999999
aF0.78000000000000003
aF0.71999999999999997
aF0.73999999999999999
aF0.78000000000000003
aF0.72999999999999998
aF0.73999999999999999
aF0.79000000000000004
aF0.72999999999999998
aF0.79000000000000004
aF0.73999999999999999
aF0.73999999999999999
aF0.79000000000000004
aF0.73999999999999999
aF0.79000000000000004
aF0.73999999999999999
aF0.73999999999999999
aF0.78000000000000003
aF0.75
aF0.77000000000000002
aF0.73999999999999999
aF0.75
aF0.76000000000000001
aF0.73999999999999999
aF0.76000000000000001
aF0.76000000000000001
aF0.76000000000000001
aF0.77000000000000002
aF0.73999999999999999
aF0.77000000000000002
aF0.77000000000000002
aF0.73999999999999999
aF0.78000000000000003
aF0.78000000000000003
aF0.73999999999999999
aF0.78000000000000003
aF0.78000000000000003
aF0.73999999999999999
aF0.79000000000000004
aF0.78000000000000003
aF0.73999999999999999
aF0.77000000000000002
aF0.79000000000000004
aF0.76000000000000001
aF0.73999999999999999
aF0.79000000000000004
aF0.76000000000000001
aF0.79000000000000004
aF0.73999999999999999
aF0.77000000000000002
aF0.78000000000000003
aF0.78000000000000003
aF0.76000000000000001
aF0.79000000000000004
aF0.77000000000000002
aF0.79000000000000004
aF0.76000000000000001
aF0.76000000000000001
aF0.78000000000000003
aF0.76000000000000001
aF0.78000000000000003
aF0.76000000000000001
aF0.77000000000000002
aF0.76000000000000001
aF0.77000000000000002
aF0.77000000000000002
aF0.77000000000000002
aF0.76000000000000001
aF0.77000000000000002
aF0.76000000000000001
aF0.78000000000000003
aF0.78000000000000003
aF0.75
aF0.75
aF0.78000000000000003
aF0.73999999999999999
aF0.78000000000000003
aF0.73999999999999999
aF0.79000000000000004
aF0.78000000000000003
aF0.72999999999999998
aF0.72999999999999998
aF0.77000000000000002
aF0.79000000000000004
aF0.71999999999999997
aF0.71999999999999997
aF0.76000000000000001
aF0.79000000000000004
aF0.70999999999999996
aF0.76000000000000001
aF0.70999999999999996
aF0.79000000000000004
aF0.69999999999999996
aF0.77000000000000002
aF0.69999999999999996
aF0.69999999999999996
aF0.78000000000000003
aF0.78000000000000003
aF0.79000000000000004
aF0.77000000000000002
aF0.79000000000000004
aF0.76000000000000001
aF0.78000000000000003
aF0.76000000000000001
aF0.78000000000000003
aF0.77000000000000002
aF0.77000000000000002
aF0.77000000000000002
aF0.77000000000000002
aF0.76000000000000001
aF0.76000000000000001
aF0.78000000000000003
aF0.75
aF0.75
aF0.73999999999999999
aF0.78000000000000003
aF0.73999999999999999
aF0.78000000000000003
aF0.72999999999999998
aF0.72999999999999998
aF0.77000000000000002
aF0.71999999999999997
aF0.76000000000000001
aF0.71999999999999997
aF0.70999999999999996
aF0.76000000000000001
aF0.70999999999999996
aF0.69999999999999996
aF0.77000000000000002
aF0.69999999999999996
aF0.69999999999999996
aF0.78000000000000003
aF0.69999999999999996
aF0.69999999999999996
aF0.79000000000000004
aF0.69999999999999996
aF0.69999999999999996
aF0.79000000000000004
aF0.69999999999999996
aF0.69999999999999996
aF0.78000000000000003
aF0.69999999999999996
aF0.69999999999999996
aF0.69999999999999996
aF0.78000000000000003
aF0.69999999999999996
aF0.69999999999999996
aF0.69999999999999996
aF0.77000000000000002
aF0.69999999999999996
aF0.69999999999999996
aF0.69999999999999996
aF0.69999999999999996
aF0.77000000000000002
aF0.76000000000000001
aF0.76000000000000001
aF0.75
aF0.75
aF0.75
aF0.73999999999999999
aF0.72999999999999998
aF0.75
aF0.73999999999999999
aF0.73999999999999999
aF0.73999999999999999
aF0.73999999999999999
aF0.73999999999999999
aF0.73999999999999999
aF0.73999999999999999
aF0.73999999999999999
aF0.73999999999999999
aF0.73999999999999999
aF0.73999999999999999
aF0.73999999999999999
aF0.73999999999999999
aF0.73999999999999999
aF0.73999999999999999
aF0.73999999999999999
aF0.73999999999999999
aF0.73999999999999999
aF0.73999999999999999
aF0.73999999999999999
aF0.73999999999999999
aF0.73999999999999999
aF0.73999999999999999
aF0.73999999999999999
aF0.73999999999999999
aF0.73999999999999999
aF0.73999999999999999
aF0.73999999999999999
aF0.73999999999999999
aF0.73999999999999999
aF0.73999999999999999
aF0.73999999999999999
aF0.73999999999999999
asg129
(lp627
S'462223'
p628
aS'476223'
p629
aS'462223'
p630
aS'476223'
p631
aS'462223'
p632
aS'476223'
p633
aS'462223'
p634
aS'476223'
p635
aS'462223'
p636
aS'466665'
p637
aS'462223'
p638
aS'476223'
p639
aS'466665'
p640
aS'462223'
p641
aS'466665'
p642
aS'476223'
p643
aS'466665'
p644
aS'462223'
p645
aS'476223'
p646
aS'468885'
p647
aS'466663'
p648
aS'476223'
p649
aS'468885'
p650
aS'466663'
p651
aS'476223'
p652
aS'468885'
p653
aS'476663'
p654
aS'468885'
p655
aS'476223'
p656
aS'476663'
p657
aS'468885'
p658
aS'476223'
p659
aS'476663'
p660
aS'468885'
p661
aS'476223'
p662
aS'476663'
p663
aS'468885'
p664
aS'476623'
p665
aS'468885'
p666
aS'476663'
p667
aS'468885'
p668
aS'476623'
p669
aS'476663'
p670
aS'468885'
p671
aS'476663'
p672
aS'476623'
p673
aS'468885'
p674
aS'478884'
p675
aS'476623'
p676
aS'468885'
p677
aS'478884'
p678
aS'476623'
p679
aS'468885'
p680
aS'478884'
p681
aS'468885'
p682
aS'486623'
p683
aS'478884'
p684
aS'468885'
p685
aS'486823'
p686
aS'468885'
p687
aS'478884'
p688
aS'486823'
p689
aS'468885'
p690
aS'478884'
p691
aS'468885'
p692
aS'486823'
p693
aS'478884'
p694
aS'468885'
p695
aS'487823'
p696
aS'478884'
p697
aS'468885'
p698
aS'478884'
p699
aS'468885'
p700
aS'487823'
p701
aS'468885'
p702
aS'478884'
p703
aS'587823'
p704
aS'468885'
p705
aS'478884'
p706
aS'588825'
p707
aS'478884'
p708
aS'468885'
p709
aS'588825'
p710
aS'478884'
p711
aS'468885'
p712
aS'588825'
p713
aS'468885'
p714
aS'478884'
p715
aS'468885'
p716
aS'588875'
p717
aS'478884'
p718
aS'468885'
p719
aS'478884'
p720
aS'588885'
p721
aS'468885'
p722
aS'468885'
p723
aS'478884'
p724
aS'688885'
p725
aS'468885'
p726
aS'478884'
p727
aS'468885'
p728
aS'688885'
p729
aS'478884'
p730
aS'468885'
p731
aS'688885'
p732
aS'468885'
p733
aS'478884'
p734
aS'468885'
p735
aS'688885'
p736
aS'478884'
p737
aS'468885'
p738
aS'478884'
p739
aS'468885'
p740
aS'688885'
p741
aS'468885'
p742
aS'478884'
p743
aS'688885'
p744
aS'468885'
p745
aS'468885'
p746
aS'688885'
p747
aS'468885'
p748
aS'478884'
p749
aS'468885'
p750
aS'688885'
p751
aS'478884'
p752
aS'468885'
p753
aS'468885'
p754
aS'478884'
p755
aS'688885'
p756
aS'468885'
p757
aS'468885'
p758
aS'478884'
p759
aS'688885'
p760
aS'468885'
p761
aS'478884'
p762
aS'466665'
p763
aS'688885'
p764
aS'466665'
p765
aS'478884'
p766
aS'466665'
p767
aS'466665'
p768
aS'688885'
p769
aS'478884'
p770
aS'478884'
p771
aS'688885'
p772
aS'478884'
p773
aS'688885'
p774
aS'478884'
p775
aS'688885'
p776
aS'478884'
p777
aS'478884'
p778
aS'688885'
p779
aS'478884'
p780
aS'688885'
p781
aS'478884'
p782
aS'478884'
p783
aS'688885'
p784
aS'478884'
p785
aS'478884'
p786
aS'478884'
p787
aS'688685'
p788
aS'478884'
p789
aS'688885'
p790
aS'478884'
p791
aS'478884'
p792
aS'688885'
p793
aS'478884'
p794
aS'688885'
p795
aS'478884'
p796
aS'478884'
p797
aS'688885'
p798
aS'476663'
p799
aS'476663'
p800
aS'688885'
p801
aS'476663'
p802
aS'476663'
p803
aS'688885'
p804
aS'476663'
p805
aS'476663'
p806
aS'688885'
p807
aS'466663'
p808
aS'466663'
p809
aS'688885'
p810
aS'466663'
p811
aS'462223'
p812
aS'688885'
p813
aS'462223'
p814
aS'462223'
p815
aS'462223'
p816
aS'688885'
p817
aS'462223'
p818
aS'462223'
p819
aS'462223'
p820
aS'688885'
p821
aS'462223'
p822
aS'462223'
p823
aS'462223'
p824
aS'462223'
p825
aS'688885'
p826
aS'688885'
p827
aS'688885'
p828
aS'688885'
p829
aS'688885'
p830
aS'688885'
p831
aS'688885'
p832
aS'688885'
p833
aS'588875'
p834
aS'588825'
p835
aS'588825'
p836
aS'588825'
p837
aS'587823'
p838
aS'587823'
p839
aS'586823'
p840
aS'586823'
p841
aS'586823'
p842
aS'586823'
p843
aS'476823'
p844
aS'476623'
p845
aS'476623'
p846
aS'476623'
p847
aS'476623'
p848
aS'476223'
p849
aS'476223'
p850
aS'476223'
p851
aS'476223'
p852
aS'476223'
p853
aS'476223'
p854
aS'476223'
p855
aS'476223'
p856
aS'476223'
p857
aS'476223'
p858
aS'476223'
p859
aS'476223'
p860
aS'476223'
p861
aS'476223'
p862
aS'376223'
p863
aS'476223'
p864
aS'376223'
p865
aS'376223'
p866
aS'376223'
p867
asg117
(lp868
I1
aI1
aI1
aI1
aI1
aI1
aI1
aI1
aI1
aI1
aI1
aI1
aI1
aI1
aI1
aI1
aI1
aI1
aI1
aI1
aI1
aI1
aI1
aI1
aI1
aI1
aI1
aI1
aI1
aI1
aI1
aI1
aI1
aI1
aI1
aI1
aI1
aI1
aI1
aI1
aI1
aI1
aI1
aI1
aI1
aI1
aI1
aI1
aI1
aI1
aI1
aI1
aI1
aI1
aI1
aI1
aI1
aI1
aI1
aI1
aI1
aI1
aI1
aI1
aI1
aI1
aI1
aI1
aI1
aI1
aI1
aI1
aI1
aI1
aI1
aI1
aI1
aI1
aI1
aI1
aI1
aI1
aI1
aI1
aI1
aI1
aI1
aI1
aI1
aI1
aI1
aI1
aI1
aI1
aI1
aI1
aI1
aI1
aI1
aI1
aI1
aI1
aI1
aI1
aI1
aI1
aI1
aI1
aI1
aI1
aI1
aI1
aI1
aI1
aI1
aI1
aI1
aI1
aI1
aI1
aI1
aI1
aI1
aI1
aI1
aI1
aI1
aI1
aI1
aI1
aI1
aI1
aI1
aI1
aI1
aI1
aI1
aI1
aI1
aI1
aI1
aI1
aI1
aI1
aI1
aI1
aI1
aI1
aI1
aI1
aI1
aI1
aI1
aI1
aI1
aI1
aI1
aI1
aI1
aI1
aI1
aI1
aI1
aI1
aI1
aI1
aI1
aI1
aI1
aI1
aI1
aI1
aI1
aI1
aI1
aI1
aI1
aI1
aI1
aI1
aI1
aI1
aI1
aI1
aI1
aI1
aI1
aI1
aI1
aI1
aI1
aI1
aI1
aI1
aI1
aI1
aI1
aI1
aI1
aI1
aI1
aI1
aI1
aI1
aI1
aI1
aI1
aI1
aI1
aI1
aI1
aI1
aI1
aI1
aI1
aI1
aI1
aI1
aI1
aI1
aI1
aI1
aI1
aI1
aI1
aI1
aI1
aI1
aI1
aI1
aI1
aI1
aI1
aI1
aI1
aI1
aI1
aI1
aI1
aI1
asg131
(lp869
S' '
aS' '
aS' '
aS' '
aS' '
aS' '
aS' '
aS' '
aS' '
aS' '
aS' '
aS' '
aS' '
aS' '
aS' '
aS' '
aS' '
aS' '
aS' '
aS' '
aS' '
aS' '
aS' '
aS' '
aS' '
aS' '
aS' '
aS' '
aS' '
aS' '
aS' '
aS' '
aS' '
aS' '
aS' '
aS' '
aS' '
aS' '
aS' '
aS' '
aS' '
aS' '
aS' '
aS' '
aS' '
aS' '
aS' '
aS' '
aS' '
aS' '
aS' '
aS' '
aS' '
aS' '
aS' '
aS' '
aS' '
aS' '
aS' '
aS' '
aS' '
aS' '
aS' '
aS' '
aS' '
aS' '
aS' '
aS' '
aS' '
aS' '
aS' '
aS' '
aS' '
aS' '
aS' '
aS' '
aS' '
aS' '
aS' '
aS' '
aS' '
aS' '
aS' '
aS' '
aS' '
aS' '
aS' '
aS' '
aS' '
aS' '
aS' '
aS' '
aS' '
aS' '
aS' '
aS' '
aS' '
aS' '
aS' '
aS' '
aS' '
aS' '
aS' '
aS' '
aS' '
aS' '
aS' '
aS' '
aS' '
aS' '
aS' '
aS' '
aS' '
aS' '
aS' '
aS' '
aS' '
aS' '
aS' '
aS' '
aS' '
aS' '
aS' '
aS' '
aS' '
aS' '
aS' '
aS' '
aS' '
aS' '
aS' '
aS' '
aS' '
aS' '
aS' '
aS' '
aS' '
aS' '
aS' '
aS' '
aS' '
aS' '
aS' '
aS' '
aS' '
aS' '
aS' '
aS' '
aS' '
aS' '
aS' '
aS' '
aS' '
aS' '
aS' '
aS' '
aS' '
aS' '
aS' '
aS' '
aS' '
aS' '
aS' '
aS' '
aS' '
aS' '
aS' '
aS' '
aS' '
aS' '
aS' '
aS' '
aS' '
aS' '
aS' '
aS' '
aS' '
aS' '
aS' '
aS' '
aS' '
aS' '
aS' '
aS' '
aS' '
aS' '
aS' '
aS' '
aS' '
aS' '
aS' '
aS' '
aS' '
aS' '
aS' '
aS' '
aS' '
aS' '
aS' '
aS' '
aS' '
aS' '
aS' '
aS' '
aS' '
aS' '
aS' '
aS' '
aS' '
aS' '
aS' '
aS' '
aS' '
aS' '
aS' '
aS' '
aS' '
aS' '
aS' '
aS' '
aS' '
aS' '
aS' '
aS' '
aS' '
aS' '
aS' '
aS' '
aS' '
aS' '
aS' '
aS' '
aS' '
aS' '
aS' '
aS' '
aS' '
aS' '
aS' '
aS' '
asg124
(lp870
F-0.0050000000000000001
aF-0.0050000000000000001
aF-0.0050000000000000001
aF-0.0050000000000000001
aF-0.0050000000000000001
aF-0.0050000000000000001
aF-0.0050000000000000001
aF-0.0050000000000000001
aF-0.0050000000000000001
aF-0.0055900000000000004
aF-0.0050000000000000001
aF-0.0050000000000000001
aF-0.0055900000000000004
aF-0.0050000000000000001
aF-0.0055900000000000004
aF-0.0050000000000000001
aF-0.0055900000000000004
aF-0.0050000000000000001
aF-0.0050000000000000001
aF-0.0055900000000000004
aF-0.0050000000000000001
aF-0.0050000000000000001
aF-0.0050800000000000003
aF-0.0050000000000000001
aF-0.0050000000000000001
aF-0.00594
aF-0.0050000000000000001
aF-0.0054599999999999996
aF-0.0050000000000000001
aF-0.0050000000000000001
aF-0.0053499999999999997
aF-0.0050000000000000001
aF-0.0050000000000000001
aF-0.0053099999999999996
aF-0.0050000000000000001
aF-0.0050000000000000001
aF-0.0052199999999999998
aF-0.0050000000000000001
aF-0.0052300000000000003
aF-0.0050000000000000001
aF-0.00511
aF-0.0050000000000000001
aF-0.0050000000000000001
aF-0.0050499999999999998
aF-0.0050000000000000001
aF-0.0050000000000000001
aF-0.0049300000000000004
aF-0.005587
aF-0.0050000000000000001
aF-0.0049500000000000004
aF-0.005084
aF-0.0050000000000000001
aF-0.0048799999999999998
aF-0.0059389999999999998
aF-0.0048399999999999997
aF-0.0050000000000000001
aF-0.0054650000000000002
aF-0.0047699999999999999
aF-0.0050000000000000001
aF-0.0046899999999999997
aF-0.0053540000000000003
aF-0.0050000000000000001
aF-0.0045999999999999999
aF-0.0053119999999999999
aF-0.0044400000000000004
aF-0.0050000000000000001
aF-0.0052240000000000003
aF-0.0041900000000000001
aF-0.0050000000000000001
aF-0.005228
aF-0.0038
aF-0.0051050000000000002
aF-0.00329
aF-0.0050000000000000001
aF-0.00298
aF-0.0050480000000000004
aF-0.0050000000000000001
aF-0.0027899999999999999
aF-0.0049259999999999998
aF-0.005587
aF-0.0049519999999999998
aF-0.00332
aF-0.005084
aF-0.0048770000000000003
aF-0.0035999999999999999
aF-0.0059389999999999998
aF-0.0037499999999999999
aF-0.0048399999999999997
aF-0.0038500000000000001
aF-0.0054650000000000002
aF-0.0047699999999999999
aF-0.0038600000000000001
aF-0.0046889999999999996
aF-0.0053540000000000003
aF-0.0038899999999999998
aF-0.0039100000000000003
aF-0.0046039999999999996
aF-0.0053119999999999999
aF-0.0039100000000000003
aF-0.0044429999999999999
aF-0.0038700000000000002
aF-0.0052240000000000003
aF-0.004182
aF-0.0038600000000000001
aF-0.005228
aF-0.0038400000000000001
aF-0.003803
aF-0.0038500000000000001
aF-0.0051050000000000002
aF-0.0032919999999999998
aF-0.0039199999999999999
aF-0.002983
aF-0.0040400000000000002
aF-0.0050480000000000004
aF-0.00413
aF-0.002787
aF-0.0049259999999999998
aF-0.0042399999999999998
aF-0.0044999999999999997
aF-0.0049519999999999998
aF-0.0045100000000000001
aF-0.003323
aF-0.0047499999999999999
aF-0.0048770000000000003
aF-0.0036020000000000002
aF-0.0049100000000000003
aF-0.0049500000000000004
aF-0.003751
aF-0.0048399999999999997
aF-0.0057000000000000002
aF-0.0054799999999999996
aF-0.0038549999999999999
aF-0.0047699999999999999
aF-0.0054799999999999996
aF-0.0038549999999999999
aF-0.0054799999999999996
aF-0.0046889999999999996
aF-0.0054799999999999996
aF-0.0038860000000000001
aF-0.0054799999999999996
aF-0.0054799999999999996
aF-0.0046039999999999996
aF-0.0039129999999999998
aF-0.0039129999999999998
aF-0.0044429999999999999
aF-0.0038700000000000002
aF-0.004182
aF-0.003862
aF-0.003803
aF-0.003836
aF-0.003849
aF-0.0032919999999999998
aF-0.0039220000000000001
aF-0.002983
aF-0.0040410000000000003
aF-0.0041250000000000002
aF-0.002787
aF-0.004235
aF-0.0044980000000000003
aF-0.0045059999999999996
aF-0.003323
aF-0.0047540000000000004
aF-0.0036020000000000002
aF-0.0049049999999999996
aF-0.0049459999999999999
aF-0.003751
aF-0.0057029999999999997
aF-0.0038549999999999999
aF-0.0054780000000000002
aF-0.0059550000000000002
aF-0.0038549999999999999
aF-0.0051999999999999998
aF-0.0051999999999999998
aF-0.0038860000000000001
aF-0.0051999999999999998
aF-0.0051999999999999998
aF-0.0039129999999999998
aF-0.0051999999999999998
aF-0.0051999999999999998
aF-0.0039129999999999998
aF-0.0051999999999999998
aF-0.0051999999999999998
aF-0.0038700000000000002
aF-0.0051999999999999998
aF-0.0051999999999999998
aF-0.003862
aF-0.0051999999999999998
aF-0.0051999999999999998
aF-0.0051999999999999998
aF-0.003836
aF-0.0051999999999999998
aF-0.0051999999999999998
aF-0.0051999999999999998
aF-0.003849
aF-0.0051999999999999998
aF-0.0051999999999999998
aF-0.0051999999999999998
aF-0.0051999999999999998
aF-0.0039220000000000001
aF-0.0040410000000000003
aF-0.0041250000000000002
aF-0.004235
aF-0.0044980000000000003
aF-0.0045059999999999996
aF-0.0047540000000000004
aF-0.0049049999999999996
aF-0.0049459999999999999
aF-0.0057029999999999997
aF-0.0054780000000000002
aF-0.0059550000000000002
aF-0.0051999999999999998
aF-0.0051999999999999998
aF-0.0051999999999999998
aF-0.0051999999999999998
aF-0.0051999999999999998
aF-0.0051999999999999998
aF-0.0051999999999999998
aF-0.0051999999999999998
aF-0.0051999999999999998
aF-0.0051999999999999998
aF-0.0051999999999999998
aF-0.0051999999999999998
aF-0.0051999999999999998
aF-0.0051999999999999998
aF-0.0051999999999999998
aF-0.0051999999999999998
aF-0.0051999999999999998
aF-0.0051999999999999998
aF-0.0051999999999999998
aF-0.0051999999999999998
aF-0.0051999999999999998
aF-0.0051999999999999998
aF-0.0051999999999999998
aF-0.0051999999999999998
aF-0.0051999999999999998
aF-0.0051999999999999998
aF-0.0051999999999999998
aF-0.0051999999999999998
aF-0.0051999999999999998
aF-0.0051999999999999998
asg128
(lp871
S'     P 40      '
p872
aS'     P 47      '
p873
aS'     P 39      '
p874
aS'     P 46      '
p875
aS'     P 38      '
p876
aS'     P 45      '
p877
aS'     P 37      '
p878
aS'     P 44      '
p879
aS'     P 36      '
p880
aS'     P 27      '
p881
aS'     P 35      '
p882
aS'     P 43      '
p883
aS'     P 26      '
p884
aS'     P 34      '
p885
aS'     P 25      '
p886
aS'     P 42      '
p887
aS'     P 24      '
p888
aS'     P 33      '
p889
aS'     P 41      '
p890
aS'     P 23      '
p891
aS'     P 32      '
p892
aS'     P 40      '
p893
aS'     P 22      '
p894
aS'     P 31      '
p895
aS'     P 39      '
p896
aS'     P 21      '
p897
aS'     P 30      '
p898
aS'     P 20      '
p899
aS'     P 38      '
p900
aS'     P 29      '
p901
aS'     P 19      '
p902
aS'     P 37      '
p903
aS'     P 28      '
p904
aS'     P 18      '
p905
aS'     P 36      '
p906
aS'     P 27      '
p907
aS'     P 17      '
p908
aS'     P 35      '
p909
aS'     P 16      '
p910
aS'     P 26      '
p911
aS'     P 15      '
p912
aS'     P 34      '
p913
aS'     P 25      '
p914
aS'     P 14      '
p915
aS'     P 24      '
p916
aS'     P 33      '
p917
aS'     P 13      '
p918
aS'     P 23      '
p919
aS'     P 32      '
p920
aS'     P 12      '
p921
aS'     P 22      '
p922
aS'     P 31      '
p923
aS'     P 11      '
p924
aS'     P 21      '
p925
aS'     P 10      '
p926
aS'     P 30      '
p927
aS'     P 20      '
p928
aS'     P  9      '
p929
aS'     P 29      '
p930
aS'     P  8      '
p931
aS'     P 19      '
p932
aS'     P 28      '
p933
aS'     P  7      '
p934
aS'     P 18      '
p935
aS'     P  6      '
p936
aS'     P 27      '
p937
aS'     P 17      '
p938
aS'     P  5      '
p939
aS'     P 26      '
p940
aS'     P 16      '
p941
aS'     P  4      '
p942
aS'     P 15      '
p943
aS'     P  3      '
p944
aS'     P 25      '
p945
aS'     P  2      '
p946
aS'     P 14      '
p947
aS'     P 24      '
p948
aS'     P  1      '
p949
aS'     P 13      '
p950
aS'     P 23      '
p951
aS'     P 12      '
p952
aS'     R  0      '
p953
aS'     P 22      '
p954
aS'     P 11      '
p955
aS'     R  1      '
p956
aS'     P 21      '
p957
aS'     R  2      '
p958
aS'     P 10      '
p959
aS'     R  3      '
p960
aS'     P 20      '
p961
aS'     P  9      '
p962
aS'     R  4      '
p963
aS'     P  8      '
p964
aS'     P 19      '
p965
aS'     R  5      '
p966
aS'     R  6      '
p967
aS'     P  7      '
p968
aS'     P 18      '
p969
aS'     R  7      '
p970
aS'     P  6      '
p971
aS'     R  8      '
p972
aS'     P 17      '
p973
aS'     P  5      '
p974
aS'     R  9      '
p975
aS'     P 16      '
p976
aS'     R 10      '
p977
aS'     P  4      '
p978
aS'     R 11      '
p979
aS'     P 15      '
p980
aS'     P  3      '
p981
aS'     R 12      '
p982
aS'     P  2      '
p983
aS'     R 13      '
p984
aS'     P 14      '
p985
aS'     R 14      '
p986
aS'     P  1      '
p987
aS'     P 13      '
p988
aS'     R 15      '
p989
aS'     R 16      '
p990
aS'     P 12      '
p991
aS'     R 17      '
p992
aS'     R  0      '
p993
aS'     R 18      '
p994
aS'     P 11      '
p995
aS'     R  1      '
p996
aS'     R 19      '
p997
aS'     R 20      '
p998
aS'     R  2      '
p999
aS'     P 10      '
p1000
aS'     R 21      '
p1001
aS'     R 22      '
p1002
aS'     R  3      '
p1003
aS'     P  9      '
p1004
aS'     R 23      '
p1005
aS'     R  4      '
p1006
aS'     R 24      '
p1007
aS'     P  8      '
p1008
aS'     R 25      '
p1009
aS'     R  5      '
p1010
aS'     R 26      '
p1011
aS'     R 27      '
p1012
aS'     P  7      '
p1013
aS'     R  6      '
p1014
aS'     R  7      '
p1015
aS'     P  6      '
p1016
aS'     R  8      '
p1017
aS'     P  5      '
p1018
aS'     R  9      '
p1019
aS'     P  4      '
p1020
aS'     R 10      '
p1021
aS'     R 11      '
p1022
aS'     P  3      '
p1023
aS'     R 12      '
p1024
aS'     P  2      '
p1025
aS'     R 13      '
p1026
aS'     R 14      '
p1027
aS'     P  1      '
p1028
aS'     R 15      '
p1029
aS'     R 16      '
p1030
aS'     R 17      '
p1031
aS'     R  0      '
p1032
aS'     R 18      '
p1033
aS'     R  1      '
p1034
aS'     R 19      '
p1035
aS'     R 20      '
p1036
aS'     R  2      '
p1037
aS'     R 21      '
p1038
aS'     R  3      '
p1039
aS'     R 22      '
p1040
aS'     R 23      '
p1041
aS'     R  4      '
p1042
aS'     R 24      '
p1043
aS'     R 25      '
p1044
aS'     R  5      '
p1045
aS'     R 26      '
p1046
aS'     R 27      '
p1047
aS'     R  6      '
p1048
aS'     R 28      '
p1049
aS'     R 29      '
p1050
aS'     R  7      '
p1051
aS'     R 30      '
p1052
aS'     R 31      '
p1053
aS'     R  8      '
p1054
aS'     R 32      '
p1055
aS'     R 33      '
p1056
aS'     R  9      '
p1057
aS'     R 34      '
p1058
aS'     R 35      '
p1059
aS'     R 36      '
p1060
aS'     R 10      '
p1061
aS'     R 37      '
p1062
aS'     R 38      '
p1063
aS'     R 39      '
p1064
aS'     R 11      '
p1065
aS'     R 40      '
p1066
aS'     R 41      '
p1067
aS'     R 42      '
p1068
aS'     R 43      '
p1069
aS'     R 12      '
p1070
aS'     R 13      '
p1071
aS'     R 14      '
p1072
aS'     R 15      '
p1073
aS'     R 16      '
p1074
aS'     R 17      '
p1075
aS'     R 18      '
p1076
aS'     R 19      '
p1077
aS'     R 20      '
p1078
aS'     R 21      '
p1079
aS'     R 22      '
p1080
aS'     R 23      '
p1081
aS'     R 24      '
p1082
aS'     R 25      '
p1083
aS'     R 26      '
p1084
aS'     R 27      '
p1085
aS'     R 28      '
p1086
aS'     R 29      '
p1087
aS'     R 30      '
p1088
aS'     R 31      '
p1089
aS'     R 32      '
p1090
aS'     R 33      '
p1091
aS'     R 34      '
p1092
aS'     R 35      '
p1093
aS'     R 36      '
p1094
aS'     R 37      '
p1095
aS'     R 38      '
p1096
aS'     R 39      '
p1097
aS'     R 40      '
p1098
aS'     R 41      '
p1099
aS'     R 42      '
p1100
aS'     R 43      '
p1101
aS'     R 44      '
p1102
aS'     R 45      '
p1103
aS'     R 46      '
p1104
aS'     R 47      '
p1105
aS'     R 48      '
p1106
aS'     R 53      '
p1107
aS'     R 49      '
p1108
aS'     R 52      '
p1109
aS'     R 50      '
p1110
aS'     R 51      '
p1111
asg127
(lp1112
S'               '
p1113
aS'               '
p1114
aS'               '
p1115
aS'               '
p1116
aS'               '
p1117
aS'               '
p1118
aS'               '
p1119
aS'               '
p1120
aS'               '
p1121
aS'               '
p1122
aS'               '
p1123
aS'               '
p1124
aS'               '
p1125
aS'               '
p1126
aS'               '
p1127
aS'               '
p1128
aS'               '
p1129
aS'               '
p1130
aS'               '
p1131
aS'               '
p1132
aS'               '
p1133
aS'               '
p1134
aS'               '
p1135
aS'               '
p1136
aS'               '
p1137
aS'               '
p1138
aS'               '
p1139
aS'               '
p1140
aS'               '
p1141
aS'               '
p1142
aS'               '
p1143
aS'               '
p1144
aS'               '
p1145
aS'               '
p1146
aS'               '
p1147
aS'               '
p1148
aS'               '
p1149
aS'               '
p1150
aS'               '
p1151
aS'               '
p1152
aS'               '
p1153
aS'               '
p1154
aS'               '
p1155
aS'               '
p1156
aS'               '
p1157
aS'               '
p1158
aS'               '
p1159
aS'               '
p1160
aS'               '
p1161
aS'               '
p1162
aS'               '
p1163
aS'               '
p1164
aS'               '
p1165
aS'               '
p1166
aS'               '
p1167
aS'               '
p1168
aS'               '
p1169
aS'               '
p1170
aS'               '
p1171
aS'               '
p1172
aS'               '
p1173
aS'               '
p1174
aS'               '
p1175
aS'               '
p1176
aS'               '
p1177
aS'               '
p1178
aS'               '
p1179
aS'               '
p1180
aS'               '
p1181
aS'               '
p1182
aS'               '
p1183
aS'               '
p1184
aS'               '
p1185
aS'               '
p1186
aS'               '
p1187
aS'               '
p1188
aS'               '
p1189
aS'               '
p1190
aS'               '
p1191
aS'               '
p1192
aS'               '
p1193
aS'               '
p1194
aS'               '
p1195
aS'               '
p1196
aS'               '
p1197
aS'               '
p1198
aS'               '
p1199
aS'               '
p1200
aS'               '
p1201
aS'               '
p1202
aS'               '
p1203
aS'               '
p1204
aS'               '
p1205
aS'               '
p1206
aS'               '
p1207
aS'               '
p1208
aS'               '
p1209
aS'               '
p1210
aS'               '
p1211
aS'               '
p1212
aS'               '
p1213
aS'               '
p1214
aS'               '
p1215
aS'               '
p1216
aS'               '
p1217
aS'               '
p1218
aS'               '
p1219
aS'               '
p1220
aS'               '
p1221
aS'               '
p1222
aS'               '
p1223
aS'               '
p1224
aS'               '
p1225
aS'               '
p1226
aS'               '
p1227
aS'               '
p1228
aS'               '
p1229
aS'               '
p1230
aS'               '
p1231
aS'               '
p1232
aS'               '
p1233
aS'               '
p1234
aS'               '
p1235
aS'               '
p1236
aS'               '
p1237
aS'               '
p1238
aS'               '
p1239
aS'               '
p1240
aS'               '
p1241
aS'               '
p1242
aS'               '
p1243
aS'               '
p1244
aS'               '
p1245
aS'               '
p1246
aS'               '
p1247
aS'               '
p1248
aS'               '
p1249
aS'               '
p1250
aS'               '
p1251
aS'               '
p1252
aS'               '
p1253
aS'               '
p1254
aS'               '
p1255
aS'               '
p1256
aS'               '
p1257
aS'               '
p1258
aS'               '
p1259
aS'               '
p1260
aS'               '
p1261
aS'               '
p1262
aS'               '
p1263
aS'               '
p1264
aS'               '
p1265
aS'               '
p1266
aS'               '
p1267
aS'               '
p1268
aS'               '
p1269
aS'               '
p1270
aS'               '
p1271
aS'               '
p1272
aS'               '
p1273
aS'               '
p1274
aS'               '
p1275
aS'               '
p1276
aS'               '
p1277
aS'               '
p1278
aS'               '
p1279
aS'               '
p1280
aS'               '
p1281
aS'               '
p1282
aS'               '
p1283
aS'               '
p1284
aS'               '
p1285
aS'               '
p1286
aS'               '
p1287
aS'               '
p1288
aS'               '
p1289
aS'               '
p1290
aS'               '
p1291
aS'               '
p1292
aS'               '
p1293
aS'               '
p1294
aS'               '
p1295
aS'               '
p1296
aS'               '
p1297
aS'               '
p1298
aS'               '
p1299
aS'               '
p1300
aS'               '
p1301
aS'               '
p1302
aS'               '
p1303
aS'               '
p1304
aS'               '
p1305
aS'               '
p1306
aS'               '
p1307
aS'               '
p1308
aS'               '
p1309
aS'               '
p1310
aS'               '
p1311
aS'               '
p1312
aS'               '
p1313
aS'               '
p1314
aS'               '
p1315
aS'               '
p1316
aS'               '
p1317
aS'               '
p1318
aS'               '
p1319
aS'               '
p1320
aS'               '
p1321
aS'               '
p1322
aS'               '
p1323
aS'               '
p1324
aS'               '
p1325
aS'               '
p1326
aS'               '
p1327
aS'               '
p1328
aS'               '
p1329
aS'               '
p1330
aS'               '
p1331
aS'               '
p1332
aS'               '
p1333
aS'               '
p1334
aS'               '
p1335
aS'               '
p1336
aS'               '
p1337
aS'               '
p1338
aS'               '
p1339
aS'               '
p1340
aS'               '
p1341
aS'               '
p1342
aS'               '
p1343
aS'               '
p1344
aS'               '
p1345
aS'               '
p1346
aS'               '
p1347
aS'               '
p1348
aS'               '
p1349
aS'               '
p1350
aS'               '
p1351
aS'               '
p1352
asg116
(lp1353
I5
aI5
aI5
aI5
aI5
aI5
aI5
aI5
aI5
aI5
aI5
aI5
aI5
aI5
aI5
aI5
aI5
aI5
aI5
aI5
aI5
aI5
aI5
aI5
aI5
aI5
aI5
aI5
aI5
aI5
aI5
aI5
aI5
aI5
aI5
aI5
aI5
aI5
aI5
aI5
aI5
aI5
aI5
aI5
aI5
aI5
aI5
aI5
aI5
aI5
aI5
aI5
aI5
aI5
aI5
aI5
aI5
aI5
aI5
aI5
aI5
aI5
aI5
aI5
aI5
aI5
aI5
aI5
aI5
aI5
aI5
aI5
aI5
aI5
aI5
aI5
aI5
aI5
aI5
aI5
aI5
aI5
aI5
aI5
aI5
aI5
aI5
aI5
aI5
aI5
aI5
aI5
aI5
aI5
aI5
aI5
aI5
aI5
aI5
aI5
aI5
aI5
aI5
aI5
aI5
aI5
aI5
aI5
aI5
aI5
aI5
aI5
aI5
aI5
aI5
aI5
aI5
aI5
aI5
aI5
aI5
aI5
aI5
aI5
aI5
aI5
aI5
aI5
aI5
aI5
aI5
aI5
aI5
aI5
aI5
aI5
aI5
aI5
aI5
aI5
aI5
aI5
aI5
aI5
aI5
aI5
aI5
aI5
aI5
aI5
aI5
aI5
aI5
aI5
aI5
aI5
aI5
aI5
aI5
aI5
aI5
aI5
aI5
aI5
aI5
aI5
aI5
aI5
aI5
aI5
aI5
aI5
aI5
aI5
aI5
aI5
aI5
aI5
aI5
aI5
aI5
aI5
aI5
aI5
aI5
aI5
aI5
aI5
aI5
aI5
aI5
aI5
aI5
aI5
aI5
aI5
aI5
aI5
aI5
aI5
aI5
aI5
aI5
aI5
aI5
aI5
aI5
aI5
aI5
aI5
aI5
aI5
aI5
aI5
aI5
aI5
aI5
aI5
aI5
aI5
aI5
aI5
aI5
aI5
aI5
aI5
aI5
aI5
aI5
aI5
aI5
aI5
aI5
aI5
aI5
aI5
aI5
aI5
aI5
aI5
asg126
(lp1354
S'              1'
p1355
aS'              0'
p1356
aS'              1'
p1357
aS'              0'
p1358
aS'              1'
p1359
aS'              0'
p1360
aS'              1'
p1361
aS'              0'
p1362
aS'              1'
p1363
aS'              2'
p1364
aS'              1'
p1365
aS'              0'
p1366
aS'              2'
p1367
aS'              1'
p1368
aS'              2'
p1369
aS'              0'
p1370
aS'              2'
p1371
aS'              1'
p1372
aS'              0'
p1373
aS'              2'
p1374
aS'              1'
p1375
aS'              0'
p1376
aS'              2'
p1377
aS'              1'
p1378
aS'              0'
p1379
aS'              2'
p1380
aS'              1'
p1381
aS'              2'
p1382
aS'              0'
p1383
aS'              1'
p1384
aS'              2'
p1385
aS'              0'
p1386
aS'              1'
p1387
aS'              2'
p1388
aS'              0'
p1389
aS'              1'
p1390
aS'              2'
p1391
aS'              0'
p1392
aS'              2'
p1393
aS'              1'
p1394
aS'              2'
p1395
aS'              0'
p1396
aS'              1'
p1397
aS'              2'
p1398
aS'              1'
p1399
aS'              0'
p1400
aS'              2'
p1401
aS'              1'
p1402
aS'              0'
p1403
aS'              2'
p1404
aS'              1'
p1405
aS'              0'
p1406
aS'              2'
p1407
aS'              1'
p1408
aS'              2'
p1409
aS'              0'
p1410
aS'              1'
p1411
aS'              2'
p1412
aS'              0'
p1413
aS'              2'
p1414
aS'              1'
p1415
aS'              0'
p1416
aS'              2'
p1417
aS'              1'
p1418
aS'              2'
p1419
aS'              0'
p1420
aS'              1'
p1421
aS'              2'
p1422
aS'              0'
p1423
aS'              1'
p1424
aS'              2'
p1425
aS'              1'
p1426
aS'              2'
p1427
aS'              0'
p1428
aS'              2'
p1429
aS'              1'
p1430
aS'              0'
p1431
aS'              2'
p1432
aS'              1'
p1433
aS'              0'
p1434
aS'              1'
p1435
aS'              2'
p1436
aS'              0'
p1437
aS'              1'
p1438
aS'              2'
p1439
aS'              0'
p1440
aS'              2'
p1441
aS'              1'
p1442
aS'              2'
p1443
aS'              0'
p1444
aS'              1'
p1445
aS'              2'
p1446
aS'              1'
p1447
aS'              0'
p1448
aS'              2'
p1449
aS'              2'
p1450
aS'              1'
p1451
aS'              0'
p1452
aS'              2'
p1453
aS'              1'
p1454
aS'              2'
p1455
aS'              0'
p1456
aS'              1'
p1457
aS'              2'
p1458
aS'              0'
p1459
aS'              2'
p1460
aS'              1'
p1461
aS'              2'
p1462
aS'              0'
p1463
aS'              1'
p1464
aS'              2'
p1465
aS'              1'
p1466
aS'              2'
p1467
aS'              0'
p1468
aS'              2'
p1469
aS'              1'
p1470
aS'              0'
p1471
aS'              2'
p1472
aS'              2'
p1473
aS'              0'
p1474
aS'              2'
p1475
aS'              1'
p1476
aS'              2'
p1477
aS'              0'
p1478
aS'              1'
p1479
aS'              2'
p1480
aS'              2'
p1481
aS'              1'
p1482
aS'              0'
p1483
aS'              2'
p1484
aS'              2'
p1485
aS'              1'
p1486
aS'              0'
p1487
aS'              2'
p1488
aS'              1'
p1489
aS'              2'
p1490
aS'              0'
p1491
aS'              2'
p1492
aS'              1'
p1493
aS'              2'
p1494
aS'              2'
p1495
aS'              0'
p1496
aS'              1'
p1497
aS'              1'
p1498
aS'              0'
p1499
aS'              1'
p1500
aS'              0'
p1501
aS'              1'
p1502
aS'              0'
p1503
aS'              1'
p1504
aS'              1'
p1505
aS'              0'
p1506
aS'              1'
p1507
aS'              0'
p1508
aS'              1'
p1509
aS'              1'
p1510
aS'              0'
p1511
aS'              1'
p1512
aS'              1'
p1513
aS'              1'
p1514
aS'              0'
p1515
aS'              1'
p1516
aS'              0'
p1517
aS'              1'
p1518
aS'              1'
p1519
aS'              0'
p1520
aS'              1'
p1521
aS'              0'
p1522
aS'              1'
p1523
aS'              1'
p1524
aS'              0'
p1525
aS'              1'
p1526
aS'              1'
p1527
aS'              0'
p1528
aS'              1'
p1529
aS'              1'
p1530
aS'              0'
p1531
aS'              1'
p1532
aS'              1'
p1533
aS'              0'
p1534
aS'              1'
p1535
aS'              1'
p1536
aS'              0'
p1537
aS'              1'
p1538
aS'              1'
p1539
aS'              0'
p1540
aS'              1'
p1541
aS'              1'
p1542
aS'              1'
p1543
aS'              0'
p1544
aS'              1'
p1545
aS'              1'
p1546
aS'              1'
p1547
aS'              0'
p1548
aS'              1'
p1549
aS'              1'
p1550
aS'              1'
p1551
aS'              1'
p1552
aS'              0'
p1553
aS'              0'
p1554
aS'              0'
p1555
aS'              0'
p1556
aS'              0'
p1557
aS'              0'
p1558
aS'              0'
p1559
aS'              0'
p1560
aS'              0'
p1561
aS'              0'
p1562
aS'              0'
p1563
aS'              0'
p1564
aS'              0'
p1565
aS'              0'
p1566
aS'              0'
p1567
aS'              0'
p1568
aS'              0'
p1569
aS'              0'
p1570
aS'              0'
p1571
aS'              0'
p1572
aS'              0'
p1573
aS'              0'
p1574
aS'              0'
p1575
aS'              0'
p1576
aS'              0'
p1577
aS'              0'
p1578
aS'              0'
p1579
aS'              0'
p1580
aS'              0'
p1581
aS'              0'
p1582
aS'              0'
p1583
aS'              0'
p1584
aS'              0'
p1585
aS'              0'
p1586
aS'              0'
p1587
aS'              0'
p1588
aS'              0'
p1589
aS'              0'
p1590
aS'              0'
p1591
aS'              0'
p1592
aS'              0'
p1593
aS'              0'
p1594
asg133
(lp1595
F81
aF95
aF79
aF93
aF77
aF91
aF75
aF89
aF73
aF55
aF71
aF87
aF53
aF69
aF51
aF85
aF49
aF67
aF83
aF47
aF65
aF81
aF45
aF63
aF79
aF43
aF61
aF41
aF77
aF59
aF39
aF75
aF57
aF37
aF73
aF55
aF35
aF71
aF33
aF53
aF31
aF69
aF51
aF29
aF49
aF67
aF27
aF47
aF65
aF25
aF45
aF63
aF23
aF43
aF21
aF61
aF41
aF19
aF59
aF17
aF39
aF57
aF15
aF37
aF13
aF55
aF35
aF11
aF53
aF33
aF9
aF31
aF7
aF51
aF5
aF29
aF49
aF3
aF27
aF47
aF25
aF1
aF45
aF23
aF3
aF43
aF5
aF21
aF7
aF41
aF19
aF9
aF17
aF39
aF11
aF13
aF15
aF37
aF15
aF13
aF17
aF35
aF11
aF19
aF33
aF21
aF9
aF23
aF31
aF7
aF25
aF5
aF27
aF29
aF29
aF3
aF27
aF31
aF33
aF25
aF35
aF1
aF37
aF23
aF3
aF39
aF41
aF5
aF21
aF43
aF45
aF7
aF19
aF47
aF9
aF49
aF17
aF51
aF11
aF53
aF55
aF15
aF13
aF15
aF13
aF17
aF11
aF19
aF9
aF21
aF23
aF7
aF25
aF5
aF27
aF29
aF3
aF31
aF33
aF35
aF1
aF37
aF3
aF39
aF41
aF5
aF43
aF7
aF45
aF47
aF9
aF49
aF51
aF11
aF53
aF55
aF13
aF57
aF59
aF15
aF61
aF63
aF17
aF65
aF67
aF19
aF69
aF71
aF73
aF21
aF75
aF77
aF79
aF23
aF81
aF83
aF85
aF87
aF25
aF27
aF29
aF31
aF33
aF35
aF37
aF39
aF41
aF43
aF45
aF47
aF49
aF51
aF53
aF55
aF57
aF59
aF61
aF63
aF65
aF67
aF69
aF71
aF73
aF75
aF77
aF79
aF81
aF83
aF85
aF87
aF89
aF91
aF93
aF95
aF97
aF107
aF99
aF105
aF101
aF103
asg118
(lp1596
F4001.725809
aF4006.2002579999998
aF4008.1519130000001
aF4013.1076889999999
aF4014.513688
aF4019.9517890000002
aF4020.8109909999998
aF4026.7324180000001
aF4027.0436800000002
aF4028.3925949999998
aF4033.2116129999999
aF4033.449435
aF4033.9361410000001
aF4039.3146459999998
aF4039.413489
aF4040.1026969999998
aF4044.8244949999998
aF4045.3526350000002
aF4046.6920650000002
aF4050.1690140000001
aF4051.3254379999998
aF4053.2173950000001
aF4055.4468999999999
aF4057.2329110000001
aF4059.6785450000002
aF4060.6580090000002
aF4063.0749089999999
aF4065.8021939999999
aF4066.0753730000001
aF4068.851287
aF4070.8793110000001
aF4072.4077360000001
aF4074.5619019999999
aF4075.8892129999999
aF4078.675491
aF4080.206608
aF4080.831756
aF4084.878494
aF4085.706792
aF4085.7852619999999
aF4090.5141760000001
aF4091.0166020000001
aF4091.2977179999998
aF4095.2537619999998
aF4096.7438300000003
aF4097.0896709999997
aF4099.9254030000002
aF4102.1234539999996
aF4103.0975559999997
aF4104.528953
aF4107.4364439999999
aF4109.0401149999998
aF4109.064265
aF4112.6826540000002
aF4113.5311949999996
aF4114.9171999999999
aF4117.861938
aF4117.9295929999998
aF4120.728658
aF4122.2593150000002
aF4122.9741510000003
aF4126.4743660000004
aF4126.5202129999998
aF4128.0191459999996
aF4130.7121420000003
aF4132.1541669999997
aF4132.9967779999997
aF4134.8349529999996
aF4137.7679159999998
aF4137.9069
aF4138.8885
aF4142.749366
aF4142.8726370000004
aF4143.315466
aF4146.7872159999997
aF4147.5240299999996
aF4148.7966729999998
aF4150.6320919999998
aF4152.2307449999998
aF4154.2113900000004
aF4156.8693640000001
aF4158.1121419999999
aF4159.5594719999999
aF4161.4397410000001
aF4161.7470229999999
aF4164.8407729999999
aF4165.3116129999999
aF4165.9417290000001
aF4168.8057639999997
aF4170.0551459999997
aF4170.3751819999998
aF4172.2293289999998
aF4174.7399530000002
aF4175.2024460000002
aF4175.5821619999997
aF4178.8641159999997
aF4179.035895
aF4180.282526
aF4182.0750429999998
aF4183.2628610000002
aF4185.2147969999996
aF4185.2952400000004
aF4187.4207050000005
aF4188.2832319999998
aF4190.2404409999999
aF4191.2801989999998
aF4191.5092789999999
aF4194.2055529999998
aF4195.1179819999998
aF4195.5284359999996
aF4197.0591469999999
aF4199.4780309999996
aF4199.8408339999996
aF4199.9277179999999
aF4202.5504659999997
aF4203.3579159999999
aF4204.6695010000003
aF4205.1878980000001
aF4207.7529830000003
aF4209.3431840000003
aF4210.2455730000001
aF4210.9079670000001
aF4212.6655229999997
aF4213.9486219999999
aF4214.5778399999999
aF4215.012686
aF4217.2869140000003
aF4218.1774150000001
aF4218.4856659999996
aF4219.4880620000004
aF4221.6159829999997
aF4221.7065460000003
aF4222.9541710000003
aF4223.6705300000003
aF4225.1650849999996
aF4225.6515570000001
aF4227.3539879999998
aF4227.5589179999997
aF4228.5528860000004
aF4229.3924649999999
aF4231.1520520000004
aF4231.684972
aF4231.8698029999996
aF4235.1156870000004
aF4235.9469760000002
aF4238.2903939999997
aF4240.1398509999999
aF4241.3937749999996
aF4244.2634529999996
aF4244.4256839999998
aF4247.3859750000001
aF4248.3176320000002
aF4250.2745000000004
aF4252.3022440000004
aF4253.0911139999998
aF4255.8356700000004
aF4256.2171390000003
aF4258.5080209999996
aF4261.1080220000003
aF4263.6355240000003
aF4263.8371969999998
aF4266.0903829999997
aF4267.5420649999996
aF4268.472452
aF4270.7815849999997
aF4271.1766299999999
aF4273.0176339999998
aF4274.7407460000004
aF4275.1804549999997
aF4277.2699009999997
aF4278.2342639999997
aF4279.2858260000003
aF4281.2280840000003
aF4281.6570400000001
aF4283.096528
aF4284.8910139999998
aF4285.0089250000001
aF4286.6113939999996
aF4288.2575230000002
aF4288.2897739999999
aF4289.8292529999999
aF4291.3264419999996
aF4291.4994390000002
aF4292.7489420000002
aF4294.0966070000004
aF4294.6377739999998
aF4295.3692920000003
aF4296.5668500000002
aF4297.6891349999996
aF4297.7046330000003
aF4298.736003
aF4299.7073060000002
aF4300.6028990000004
aF4300.699869
aF4301.4226369999997
aF4302.1663719999997
aF4302.8339599999999
aF4303.4252539999998
aF4303.6233350000002
aF4306.474886
aF4309.2543750000004
aF4311.9616550000001
aF4314.5965820000001
aF4317.1590070000002
aF4319.6487859999997
aF4322.0657719999999
aF4324.4098199999999
aF4326.6807829999998
aF4328.8785159999998
aF4331.0028730000004
aF4333.0537080000004
aF4335.0308759999998
aF4336.9342310000002
aF4338.7636279999997
aF4340.5189209999999
aF4342.1999649999998
aF4343.8066140000001
aF4345.3387240000002
aF4346.7961480000004
aF4348.1787420000001
aF4349.4863610000002
aF4350.7188589999996
aF4351.8761139999997
aF4352.9579350000004
aF4353.964199
aF4354.8947619999999
aF4355.7494779999997
aF4356.5282020000004
aF4357.2307890000002
aF4357.857094
aF4358.4069710000003
aF4358.8802750000004
aF4359.2768619999997
aF4359.5965850000002
aF4359.8392990000002
aF4359.8926469999997
aF4360.00486
aF4360.0371599999999
aF4360.0931200000005
aF4360.1039360000004
asg121
(lp1597
F0.041000000000000002
aF0.041000000000000002
aF0.041000000000000002
aF0.041000000000000002
aF0.041000000000000002
aF0.041000000000000002
aF0.041000000000000002
aF0.041000000000000002
aF0.041000000000000002
aF0.048000000000000001
aF0.041000000000000002
aF0.041000000000000002
aF0.049000000000000002
aF0.041000000000000002
aF0.050000000000000003
aF0.041000000000000002
aF0.050999999999999997
aF0.041000000000000002
aF0.041000000000000002
aF0.051999999999999998
aF0.042000000000000003
aF0.041000000000000002
aF0.052999999999999999
aF0.042999999999999997
aF0.041000000000000002
aF0.053999999999999999
aF0.042999999999999997
aF0.055
aF0.041000000000000002
aF0.045999999999999999
aF0.056000000000000001
aF0.041000000000000002
aF0.047
aF0.057000000000000002
aF0.041000000000000002
aF0.048000000000000001
aF0.058000000000000003
aF0.041000000000000002
aF0.058999999999999997
aF0.049000000000000002
aF0.059999999999999998
aF0.041000000000000002
aF0.050000000000000003
aF0.060999999999999999
aF0.050999999999999997
aF0.041000000000000002
aF0.062
aF0.051999999999999998
aF0.042000000000000003
aF0.063
aF0.052999999999999999
aF0.042999999999999997
aF0.064000000000000001
aF0.053999999999999999
aF0.065000000000000002
aF0.042999999999999997
aF0.055
aF0.066000000000000003
aF0.045999999999999999
aF0.067000000000000004
aF0.056000000000000001
aF0.047
aF0.068000000000000005
aF0.057000000000000002
aF0.070000000000000007
aF0.048000000000000001
aF0.058000000000000003
aF0.071999999999999995
aF0.049000000000000002
aF0.058999999999999997
aF0.074999999999999997
aF0.059999999999999998
aF0.078
aF0.050000000000000003
aF0.082000000000000003
aF0.060999999999999999
aF0.050999999999999997
aF0.087999999999999995
aF0.062
aF0.051999999999999998
aF0.063
aF0.087999999999999995
aF0.052999999999999999
aF0.064000000000000001
aF0.082000000000000003
aF0.053999999999999999
aF0.078
aF0.065000000000000002
aF0.074999999999999997
aF0.055
aF0.066000000000000003
aF0.071999999999999995
aF0.067000000000000004
aF0.056000000000000001
aF0.070000000000000007
aF0.068000000000000005
aF0.068000000000000005
aF0.057000000000000002
aF0.066000000000000003
aF0.070000000000000007
aF0.065000000000000002
aF0.058000000000000003
aF0.071999999999999995
aF0.064000000000000001
aF0.058999999999999997
aF0.063
aF0.074999999999999997
aF0.062
aF0.059999999999999998
aF0.078
aF0.062
aF0.082000000000000003
aF0.060999999999999999
aF0.060999999999999999
aF0.059999999999999998
aF0.087999999999999995
aF0.062
aF0.058999999999999997
aF0.058000000000000003
aF0.063
aF0.057000000000000002
aF0.087999999999999995
aF0.056000000000000001
aF0.064000000000000001
aF0.082000000000000003
aF0.055
aF0.052999999999999999
aF0.078
aF0.065000000000000002
aF0.051999999999999998
aF0.050999999999999997
aF0.074999999999999997
aF0.066000000000000003
aF0.050000000000000003
aF0.071999999999999995
aF0.049000000000000002
aF0.067000000000000004
aF0.048000000000000001
aF0.070000000000000007
aF0.047
aF0.047
aF0.068000000000000005
aF0.068000000000000005
aF0.066000000000000003
aF0.070000000000000007
aF0.065000000000000002
aF0.071999999999999995
aF0.064000000000000001
aF0.074999999999999997
aF0.063
aF0.062
aF0.078
aF0.062
aF0.082000000000000003
aF0.060999999999999999
aF0.059999999999999998
aF0.087999999999999995
aF0.058999999999999997
aF0.058000000000000003
aF0.057000000000000002
aF0.087999999999999995
aF0.056000000000000001
aF0.082000000000000003
aF0.055
aF0.052999999999999999
aF0.078
aF0.051999999999999998
aF0.074999999999999997
aF0.050999999999999997
aF0.050000000000000003
aF0.071999999999999995
aF0.049000000000000002
aF0.048000000000000001
aF0.070000000000000007
aF0.047
aF0.047
aF0.068000000000000005
aF0.045999999999999999
aF0.044999999999999998
aF0.066000000000000003
aF0.042999999999999997
aF0.042000000000000003
aF0.065000000000000002
aF0.041000000000000002
aF0.041000000000000002
aF0.064000000000000001
aF0.041000000000000002
aF0.041000000000000002
aF0.041000000000000002
aF0.063
aF0.041000000000000002
aF0.041000000000000002
aF0.041000000000000002
aF0.062
aF0.041000000000000002
aF0.041000000000000002
aF0.041000000000000002
aF0.041000000000000002
aF0.062
aF0.060999999999999999
aF0.059999999999999998
aF0.058999999999999997
aF0.058000000000000003
aF0.057000000000000002
aF0.056000000000000001
aF0.055
aF0.052999999999999999
aF0.051999999999999998
aF0.050999999999999997
aF0.050000000000000003
aF0.049000000000000002
aF0.048000000000000001
aF0.047
aF0.047
aF0.045999999999999999
aF0.044999999999999998
aF0.042999999999999997
aF0.042000000000000003
aF0.041000000000000002
aF0.041000000000000002
aF0.041000000000000002
aF0.041000000000000002
aF0.041000000000000002
aF0.041000000000000002
aF0.041000000000000002
aF0.041000000000000002
aF0.041000000000000002
aF0.041000000000000002
aF0.041000000000000002
aF0.041000000000000002
aF0.041000000000000002
aF0.041000000000000002
aF0.041000000000000002
aF0.041000000000000002
aF0.041000000000000002
aF0.041000000000000002
aF0.041000000000000002
aF0.041000000000000002
aF0.041000000000000002
aF0.041000000000000002
ass.