(dp1
S'header'
p2
(dp3
Vdescription
p4
(dp5
Va
VEinstein A-coefficient in s-1
p6
sVgamma_air
p7
VAir-broadened Lorentzian half-width at half-maximum at p = 1 atm and T = 296 K
p8
sVgp
p9
VUpper state degeneracy
p10
sVglobal_upper_quanta
p11
VElectronic and vibrational quantum numbers and labels for the upper state of a transition
p12
sVglobal_lower_quanta
p13
VElectronic and vibrational quantum numbers and labels for the lower state of a transition
p14
sVsw
p15
VLine intensity, multiplied by isotopologue abundance, at T = 296 K
p16
sVn_air
p17
VTemperature exponent for the air-broadened HWHM
p18
sVnu
p19
VTransition wavenumber
p20
sVlocal_iso_id
p21
VInteger ID of a particular Isotopologue, unique only to a given molecule, in order or abundance (1 = most abundant)
p22
sVline_mixing_flag
p23
VA flag indicating the presence of additional data and code relating to line-mixing
p24
sVdelta_air
p25
VPressure shift induced by air, referred to p=1 atm
p26
sVlocal_lower_quanta
p27
VRotational, hyperfine and other quantum numbers and labels for the lower state of a transition
p28
sVlocal_upper_quanta
p29
VRotational, hyperfine and other quantum numbers and labels for the upper state of a transition
p30
sViref
p31
VOrdered list of reference identifiers for transition parameters
p32
sVierr
p33
VOrdered list of indices corresponding to uncertainty estimates of transition parameters
p34
sVmolec_id
p35
VThe HITRAN integer ID for this molecule in all its isotopologue forms
p36
sVgpp
p37
VLower state degeneracy
p38
sVelower
p39
VLower-state energy
p40
sVgamma_self
p41
VSelf-broadened HWHM at 1 atm pressure and 296 K
p42
ssVformat
p43
(dp44
Va
V%10.3E
p45
sVgamma_air
p46
V%5.4f
p47
sVgp
p48
V%7.1f
p49
sVnu
p50
V%12.6f
p51
sVelower
p52
V%10.4f
p53
sVglobal_lower_quanta
p54
V%15s
p55
sVsw
p56
V%10.3E
p57
sVierr
p58
V%6s
p59
sVn_air
p60
V%4.2f
p61
sVlocal_iso_id
p62
V%1d
p63
sVline_mixing_flag
p64
V%1s
p65
sVdelta_air
p66
V%8.6f
p67
sVlocal_lower_quanta
p68
V%15s
p69
sVlocal_upper_quanta
p70
V%15s
p71
sViref
p72
V%12s
p73
sVmolec_id
p74
V%2d
p75
sVgpp
p76
V%7.1f
p77
sVglobal_upper_quanta
p78
V%15s
p79
sVgamma_self
p80
V%5.3f
p81
ssVdefault
p82
(dp83
Va
F0
sVgamma_air
p84
F0
sVgp
p85
VFFF
p86
sVnu
p87
F0
sVelower
p88
F0
sVglobal_lower_quanta
p89
V000
p90
sVsw
p91
F0
sVierr
p92
VEEE
p93
sVn_air
p94
F0
sVlocal_iso_id
p95
I0
sVline_mixing_flag
p96
VEEE
p97
sVdelta_air
p98
F0
sVlocal_lower_quanta
p99
V000
p100
sVlocal_upper_quanta
p101
V000
p102
sViref
p103
VEEE
p104
sVmolec_id
p105
I0
sVgpp
p106
VFFF
p107
sVglobal_upper_quanta
p108
V000
p109
sVgamma_self
p110
F0
ssVtable_type
p111
Vcolumn-fixed
p112
sVsize_in_bytes
p113
I-1
sVtable_name
p114
VH2S
p115
sVnumber_of_rows
p116
I551
sVorder
p117
(lp118
Vmolec_id
p119
aVlocal_iso_id
p120
aVnu
p121
aVsw
p122
aVa
aVgamma_air
p123
aVgamma_self
p124
aVelower
p125
aVn_air
p126
aVdelta_air
p127
aVglobal_upper_quanta
p128
aVglobal_lower_quanta
p129
aVlocal_upper_quanta
p130
aVlocal_lower_quanta
p131
aVierr
p132
aViref
p133
aVline_mixing_flag
p134
aVgp
p135
aVgpp
p136
assS'data'
p137
(dp138
Va
(lp139
F0.0018910000000000001
aF0.002104
aF0.003578
aF0.001011
aF0.022429999999999999
aF0.014840000000000001
aF0.0057790000000000003
aF0.0098630000000000002
aF0.015630000000000002
aF0.0013799999999999999
aF0.017250000000000001
aF0.00074669999999999999
aF0.017129999999999999
aF0.0099159999999999995
aF0.0098219999999999991
aF0.0049350000000000002
aF0.0017329999999999999
aF0.0094769999999999993
aF0.017080000000000001
aF0.017080000000000001
aF0.0028119999999999998
aF0.005326
aF0.0052069999999999998
aF0.0092379999999999997
aF0.017049999999999999
aF0.01702
aF0.0090790000000000003
aF0.0090629999999999999
aF0.017010000000000001
aF0.01703
aF0.001926
aF0.0038019999999999998
aF0.0027039999999999998
aF0.008881
aF0.008881
aF0.017049999999999999
aF0.017069999999999998
aF0.003594
aF0.0086779999999999999
aF0.0086910000000000008
aF0.0020920000000000001
aF0.0033670000000000002
aF0.01704
aF0.01704
aF0.0084720000000000004
aF0.0084530000000000004
aF0.001487
aF0.0030539999999999999
aF0.0031489999999999999
aF0.017049999999999999
aF0.017069999999999998
aF0.0026380000000000002
aF0.0081949999999999992
aF0.0081810000000000008
aF0.0025969999999999999
aF0.002905
aF0.00093099999999999997
aF0.017090000000000001
aF0.017090000000000001
aF0.001934
aF0.0078209999999999998
aF0.0078750000000000001
aF0.0026199999999999999
aF0.001652
aF0.00072539999999999996
aF0.017090000000000001
aF0.017049999999999999
aF0.00098769999999999999
aF0.0072859999999999999
aF0.0074400000000000004
aF0.0026050000000000001
aF0.01711
aF0.01711
aF0.0063769999999999999
aF0.00181
aF0.0068069999999999997
aF0.0057239999999999999
aF0.002232
aF0.017059999999999999
aF0.01711
aF0.0050730000000000003
aF0.0086560000000000005
aF0.01678
aF0.016979999999999999
aF0.00053640000000000003
aF0.0012620000000000001
aF0.01704
aF0.001493
aF0.0016299999999999999
aF0.015970000000000002
aF0.0012620000000000001
aF0.0012639999999999999
aF0.0025609999999999999
aF0.0021159999999999998
aF0.0027780000000000001
aF0.0028760000000000001
aF0.0037820000000000002
aF0.034299999999999997
aF0.005339
aF0.0027209999999999999
aF0.0049810000000000002
aF0.0081220000000000007
aF0.0052259999999999997
aF0.0033470000000000001
aF0.0092669999999999992
aF0.0059420000000000002
aF0.0054549999999999998
aF0.0083199999999999993
aF0.0090840000000000001
aF0.01354
aF0.0172
aF0.029229999999999999
aF0.026669999999999999
aF0.023390000000000001
aF0.01848
aF0.025850000000000001
aF0.019720000000000001
aF0.029729999999999999
aF0.014970000000000001
aF0.020629999999999999
aF0.030890000000000001
aF0.0183
aF0.014149999999999999
aF0.017840000000000002
aF0.016719999999999999
aF0.02402
aF0.0287
aF0.016809999999999999
aF0.030450000000000001
aF0.01932
aF0.032399999999999998
aF0.019109999999999999
aF0.02402
aF0.035090000000000003
aF0.019720000000000001
aF0.020240000000000001
aF0.027900000000000001
aF0.01976
aF0.029590000000000002
aF0.036360000000000003
aF0.017829999999999999
aF0.01788
aF0.027570000000000001
aF0.01898
aF0.026749999999999999
aF0.030210000000000001
aF0.027310000000000001
aF0.031660000000000001
aF0.034599999999999999
aF0.036940000000000001
aF0.01094
aF0.020060000000000001
aF0.032980000000000002
aF0.022200000000000001
aF0.022259999999999999
aF0.03909
aF0.036729999999999999
aF0.01687
aF0.030020000000000002
aF0.031910000000000001
aF0.019199999999999998
aF0.01925
aF0.036900000000000002
aF0.02206
aF0.040620000000000003
aF0.0195
aF0.030280000000000001
aF0.00042969999999999998
aF0.03048
aF0.020420000000000001
aF0.037150000000000002
aF0.02375
aF0.02375
aF0.039789999999999999
aF0.03773
aF0.033279999999999997
aF0.037479999999999999
aF0.041079999999999998
aF0.020959999999999999
aF0.041799999999999997
aF0.04274
aF0.023480000000000001
aF0.04283
aF0.031570000000000001
aF0.043639999999999998
aF0.020750000000000001
aF0.020750000000000001
aF0.020379999999999999
aF0.044170000000000001
aF0.042070000000000003
aF0.020830000000000001
aF0.0073899999999999999
aF0.033939999999999998
aF0.034029999999999998
aF0.041509999999999998
aF0.04657
aF0.024889999999999999
aF0.024850000000000001
aF0.034509999999999999
aF0.0016559999999999999
aF0.042779999999999999
aF0.042930000000000003
aF0.026179999999999998
aF0.026630000000000001
aF0.037569999999999999
aF0.039609999999999999
aF0.044139999999999999
aF0.049430000000000002
aF0.048660000000000002
aF0.02248
aF0.022419999999999999
aF0.021010000000000001
aF0.04922
aF0.021319999999999999
aF0.051819999999999998
aF0.02571
aF0.02571
aF0.03764
aF0.037749999999999999
aF0.035839999999999997
aF0.030040000000000001
aF0.053780000000000001
aF0.0075430000000000002
aF0.05289
aF0.048410000000000002
aF0.0045729999999999998
aF0.048480000000000002
aF0.02043
aF0.00077139999999999999
aF0.029309999999999999
aF0.029440000000000001
aF0.056930000000000001
aF0.021659999999999999
aF0.024279999999999999
aF0.024279999999999999
aF0.055980000000000002
aF0.056059999999999999
aF0.035790000000000002
aF0.026460000000000001
aF0.026409999999999999
aF0.028479999999999998
aF0.041599999999999998
aF0.041610000000000001
aF0.0038279999999999998
aF0.059799999999999999
aF0.06123
aF0.061699999999999998
aF0.0032169999999999998
aF0.031660000000000001
aF0.031600000000000003
aF0.063509999999999997
aF0.054309999999999997
aF0.054309999999999997
aF0.026290000000000001
aF0.026280000000000001
aF0.029579999999999999
aF0.0659
aF0.027040000000000002
aF0.027040000000000002
aF0.063530000000000003
aF0.031699999999999999
aF0.002787
aF0.063630000000000006
aF0.063729999999999995
aF0.045690000000000001
aF0.045740000000000003
aF0.01968
aF0.01737
aF0.033430000000000001
aF0.033509999999999998
aF0.070639999999999994
aF0.060440000000000001
aF0.06037
aF0.02843
aF0.028389999999999999
aF0.043139999999999998
aF0.027619999999999999
aF0.027609999999999999
aF0.035060000000000001
aF0.0356
aF0.074910000000000004
aF0.071669999999999998
aF0.071669999999999998
aF0.05008
aF0.050000000000000003
aF0.0017979999999999999
aF0.0010430000000000001
aF0.005359
aF0.035119999999999998
aF0.035119999999999998
aF0.036319999999999998
aF0.028139999999999998
aF0.02811
aF0.03066
aF0.030710000000000001
aF0.080009999999999998
aF0.066830000000000001
aF0.066830000000000001
aF0.0057039999999999999
aF0.0050509999999999999
aF0.0043400000000000001
aF0.038920000000000003
aF0.038920000000000003
aF0.031320000000000001
aF0.093049999999999994
aF0.054579999999999997
aF0.054579999999999997
aF0.094869999999999996
aF0.01282
aF0.079719999999999999
aF0.03823
aF0.03764
aF0.036409999999999998
aF0.036459999999999999
aF0.028539999999999999
aF0.028590000000000001
aF0.032980000000000002
aF0.032939999999999997
aF0.073510000000000006
aF0.073510000000000006
aF0.041910000000000003
aF0.0419
aF0.059429999999999997
aF0.059290000000000002
aF0.040419999999999998
aF0.029010000000000001
aF0.028969999999999999
aF0.088620000000000004
aF0.042049999999999997
aF0.037659999999999999
aF0.03771
aF0.063850000000000004
aF0.013599999999999999
aF0.035520000000000003
aF0.035520000000000003
aF0.080850000000000005
aF0.0086979999999999991
aF0.044479999999999999
aF0.04437
aF0.029829999999999999
aF0.02937
aF0.02937
aF0.064420000000000005
aF0.038850000000000003
aF0.038899999999999997
aF0.048689999999999997
aF0.011039999999999999
aF0.046260000000000003
aF0.046600000000000003
aF0.064829999999999999
aF0.038089999999999999
aF0.038089999999999999
aF0.1298
aF0.13150000000000001
aF0.0051570000000000001
aF0.088099999999999998
aF0.0054289999999999998
aF0.0051669999999999997
aF0.029700000000000001
aF0.046620000000000002
aF0.046769999999999999
aF0.045780000000000001
aF0.069980000000000001
aF0.03993
aF0.03986
aF0.005757
aF0.025579999999999999
aF0.040779999999999997
aF0.050659999999999997
aF0.050659999999999997
aF0.043839999999999997
aF0.03005
aF0.049360000000000001
aF0.048770000000000001
aF0.048770000000000001
aF0.094310000000000005
aF0.024889999999999999
aF0.040969999999999999
aF0.040849999999999997
aF0.054539999999999998
aF0.054429999999999999
aF0.099199999999999997
aF0.012869999999999999
aF0.053080000000000002
aF0.0545
aF0.015559999999999999
aF0.050790000000000002
aF0.05067
aF0.042000000000000003
aF0.068190000000000001
aF0.1731
aF0.012829999999999999
aF0.0007293
aF0.17399999999999999
aF0.043529999999999999
aF0.057759999999999999
aF0.057660000000000003
aF0.018370000000000001
aF0.044310000000000002
aF0.057669999999999999
aF0.0051960000000000001
aF0.0052189999999999997
aF0.052339999999999998
aF0.059400000000000001
aF0.059900000000000002
aF0.0043779999999999999
aF0.058189999999999999
aF0.06055
aF0.06037
aF0.1348
aF0.022669999999999999
aF0.05423
aF0.064519999999999994
aF0.064649999999999999
aF0.14050000000000001
aF0.058310000000000001
aF0.070379999999999998
aF0.063149999999999998
aF0.021520000000000001
aF0.063200000000000006
aF0.22309999999999999
aF0.223
aF0.016959999999999999
aF0.039879999999999999
aF0.097809999999999994
aF0.01353
aF0.068909999999999999
aF0.01362
aF0.067919999999999994
aF0.069180000000000005
aF0.03542
aF0.075990000000000002
aF0.0053010000000000002
aF0.0053220000000000003
aF0.072859999999999994
aF0.070010000000000003
aF0.18410000000000001
aF0.10680000000000001
aF0.0034359999999999998
aF0.074709999999999999
aF0.18820000000000001
aF0.029319999999999999
aF0.072940000000000005
aF0.023949999999999999
aF0.27929999999999999
aF0.27879999999999999
aF0.024230000000000002
aF0.053629999999999997
aF0.14099999999999999
aF0.015350000000000001
aF0.074539999999999995
aF0.0017110000000000001
aF0.0017539999999999999
aF0.01426
aF0.014279999999999999
aF0.15290000000000001
aF0.1053
aF0.0054660000000000004
aF0.0054729999999999996
aF0.23980000000000001
aF0.24179999999999999
aF0.036020000000000003
aF0.087730000000000002
aF0.080229999999999996
aF0.033989999999999999
aF0.34089999999999998
aF0.34089999999999998
aF0.035990000000000001
aF0.0028440000000000002
aF0.02596
aF0.026040000000000001
aF0.19539999999999999
aF0.050169999999999999
aF0.20610000000000001
aF0.0126
aF0.11840000000000001
aF0.014970000000000001
aF0.01498
aF0.30180000000000001
aF0.3029
aF0.1484
aF0.005653
aF0.0056439999999999997
aF0.047350000000000003
aF0.40999999999999998
aF0.40899999999999997
aF0.039460000000000002
aF0.03372
aF0.069040000000000004
aF0.039750000000000001
aF0.25890000000000002
aF0.16869999999999999
aF0.027650000000000001
aF0.26779999999999998
aF0.027709999999999999
aF0.0046909999999999999
aF0.3705
aF0.37090000000000001
aF0.015679999999999999
aF0.015699999999999999
aF0.0027139999999999998
aF0.096000000000000002
aF0.054420000000000003
aF0.01026
aF0.48530000000000001
aF0.48599999999999999
aF0.056149999999999999
aF0.0058690000000000001
aF0.0058690000000000001
aF0.055019999999999999
aF0.22889999999999999
aF0.042939999999999999
aF0.043040000000000002
aF0.3352
aF0.13550000000000001
aF0.070849999999999996
aF0.02938
aF0.029430000000000001
aF0.4456
aF0.4466
aF0.56559999999999999
aF0.56540000000000001
aF0.016480000000000002
aF0.01651
aF0.070300000000000001
aF0.058880000000000002
aF0.059999999999999998
aF0.0060980000000000001
aF0.0060959999999999999
aF0.060650000000000003
aF0.090700000000000003
aF0.40679999999999999
aF0.046019999999999998
aF0.046149999999999997
aF0.52649999999999997
aF0.03109
aF0.03109
aF0.65159999999999996
aF0.078759999999999997
aF0.017340000000000001
aF0.017239999999999998
aF0.006332
aF0.065379999999999994
aF0.049099999999999998
aF0.03286
aF0.01806
aF0.0066119999999999998
aF0.070449999999999999
aF0.052560000000000003
aF0.034479999999999997
aF0.019040000000000001
asg123
(lp140
F0.073999999999999996
aF0.073999999999999996
aF0.073999999999999996
aF0.073999999999999996
aF0.073999999999999996
aF0.073999999999999996
aF0.073999999999999996
aF0.073999999999999996
aF0.073999999999999996
aF0.073999999999999996
aF0.073999999999999996
aF0.073999999999999996
aF0.073999999999999996
aF0.073999999999999996
aF0.073999999999999996
aF0.073999999999999996
aF0.073999999999999996
aF0.073999999999999996
aF0.073999999999999996
aF0.073999999999999996
aF0.073999999999999996
aF0.073999999999999996
aF0.073999999999999996
aF0.073999999999999996
aF0.073999999999999996
aF0.073999999999999996
aF0.073999999999999996
aF0.073999999999999996
aF0.073999999999999996
aF0.073999999999999996
aF0.073999999999999996
aF0.073999999999999996
aF0.073999999999999996
aF0.073999999999999996
aF0.073999999999999996
aF0.073999999999999996
aF0.073999999999999996
aF0.073999999999999996
aF0.073999999999999996
aF0.073999999999999996
aF0.073999999999999996
aF0.070000000000000007
aF0.073999999999999996
aF0.073999999999999996
aF0.068000000000000005
aF0.068000000000000005
aF0.073999999999999996
aF0.073999999999999996
aF0.073999999999999996
aF0.063
aF0.063
aF0.073999999999999996
aF0.073999999999999996
aF0.073999999999999996
aF0.078
aF0.073999999999999996
aF0.073999999999999996
aF0.067000000000000004
aF0.067000000000000004
aF0.073999999999999996
aF0.073999999999999996
aF0.073999999999999996
aF0.078
aF0.073999999999999996
aF0.073999999999999996
aF0.073999999999999996
aF0.073999999999999996
aF0.073999999999999996
aF0.076999999999999999
aF0.073999999999999996
aF0.073999999999999996
aF0.073999999999999996
aF0.073999999999999996
aF0.073999999999999996
aF0.073999999999999996
aF0.073999999999999996
aF0.073999999999999996
aF0.073999999999999996
aF0.073999999999999996
aF0.073999999999999996
aF0.085000000000000006
aF0.073999999999999996
aF0.083000000000000004
aF0.078
aF0.073999999999999996
aF0.073999999999999996
aF0.073999999999999996
aF0.073999999999999996
aF0.073999999999999996
aF0.073999999999999996
aF0.073999999999999996
aF0.073999999999999996
aF0.073999999999999996
aF0.073999999999999996
aF0.073999999999999996
aF0.073999999999999996
aF0.073999999999999996
aF0.073999999999999996
aF0.073999999999999996
aF0.073999999999999996
aF0.073999999999999996
aF0.073999999999999996
aF0.073999999999999996
aF0.073999999999999996
aF0.073999999999999996
aF0.073999999999999996
aF0.073999999999999996
aF0.073999999999999996
aF0.108
aF0.104
aF0.11600000000000001
aF0.104
aF0.080000000000000002
aF0.073999999999999996
aF0.073999999999999996
aF0.073999999999999996
aF0.073999999999999996
aF0.084000000000000005
aF0.094
aF0.073999999999999996
aF0.073999999999999996
aF0.073999999999999996
aF0.10100000000000001
aF0.073999999999999996
aF0.073999999999999996
aF0.073999999999999996
aF0.073999999999999996
aF0.073999999999999996
aF0.073999999999999996
aF0.088999999999999996
aF0.073999999999999996
aF0.105
aF0.073999999999999996
aF0.073999999999999996
aF0.073999999999999996
aF0.073999999999999996
aF0.073999999999999996
aF0.073999999999999996
aF0.073999999999999996
aF0.073999999999999996
aF0.073999999999999996
aF0.073999999999999996
aF0.073999999999999996
aF0.073999999999999996
aF0.073999999999999996
aF0.073999999999999996
aF0.073999999999999996
aF0.073999999999999996
aF0.071999999999999995
aF0.073999999999999996
aF0.073999999999999996
aF0.073999999999999996
aF0.073999999999999996
aF0.073999999999999996
aF0.073999999999999996
aF0.073999999999999996
aF0.073999999999999996
aF0.10199999999999999
aF0.073999999999999996
aF0.073999999999999996
aF0.073999999999999996
aF0.073999999999999996
aF0.073999999999999996
aF0.073999999999999996
aF0.073999999999999996
aF0.073999999999999996
aF0.073999999999999996
aF0.073999999999999996
aF0.073999999999999996
aF0.073999999999999996
aF0.073999999999999996
aF0.073999999999999996
aF0.073999999999999996
aF0.073999999999999996
aF0.073999999999999996
aF0.073999999999999996
aF0.073999999999999996
aF0.073999999999999996
aF0.073999999999999996
aF0.073999999999999996
aF0.073999999999999996
aF0.073999999999999996
aF0.073999999999999996
aF0.073999999999999996
aF0.073999999999999996
aF0.073999999999999996
aF0.073999999999999996
aF0.073999999999999996
aF0.073999999999999996
aF0.073999999999999996
aF0.073999999999999996
aF0.073999999999999996
aF0.073999999999999996
aF0.073999999999999996
aF0.073999999999999996
aF0.073999999999999996
aF0.073999999999999996
aF0.073999999999999996
aF0.073999999999999996
aF0.073999999999999996
aF0.073999999999999996
aF0.073999999999999996
aF0.073999999999999996
aF0.073999999999999996
aF0.073999999999999996
aF0.073999999999999996
aF0.073999999999999996
aF0.073999999999999996
aF0.073999999999999996
aF0.073999999999999996
aF0.073999999999999996
aF0.073999999999999996
aF0.073999999999999996
aF0.073999999999999996
aF0.073999999999999996
aF0.073999999999999996
aF0.073999999999999996
aF0.068000000000000005
aF0.073999999999999996
aF0.073999999999999996
aF0.083000000000000004
aF0.073999999999999996
aF0.073999999999999996
aF0.073999999999999996
aF0.073999999999999996
aF0.073999999999999996
aF0.073999999999999996
aF0.073999999999999996
aF0.073999999999999996
aF0.073999999999999996
aF0.073999999999999996
aF0.073999999999999996
aF0.073999999999999996
aF0.073999999999999996
aF0.073999999999999996
aF0.073999999999999996
aF0.073999999999999996
aF0.073999999999999996
aF0.073999999999999996
aF0.073999999999999996
aF0.073999999999999996
aF0.065000000000000002
aF0.065000000000000002
aF0.089999999999999997
aF0.073999999999999996
aF0.073999999999999996
aF0.073999999999999996
aF0.073999999999999996
aF0.073999999999999996
aF0.073999999999999996
aF0.081000000000000003
aF0.073999999999999996
aF0.073999999999999996
aF0.073999999999999996
aF0.073999999999999996
aF0.073999999999999996
aF0.073999999999999996
aF0.073999999999999996
aF0.073999999999999996
aF0.073999999999999996
aF0.073999999999999996
aF0.073999999999999996
aF0.073999999999999996
aF0.073999999999999996
aF0.060999999999999999
aF0.060999999999999999
aF0.073999999999999996
aF0.073999999999999996
aF0.073999999999999996
aF0.068000000000000005
aF0.073999999999999996
aF0.073999999999999996
aF0.073999999999999996
aF0.073999999999999996
aF0.073999999999999996
aF0.073999999999999996
aF0.073999999999999996
aF0.073999999999999996
aF0.074999999999999997
aF0.073999999999999996
aF0.073999999999999996
aF0.073999999999999996
aF0.073999999999999996
aF0.073999999999999996
aF0.073999999999999996
aF0.073999999999999996
aF0.073999999999999996
aF0.073999999999999996
aF0.073999999999999996
aF0.073999999999999996
aF0.080000000000000002
aF0.073999999999999996
aF0.049000000000000002
aF0.073999999999999996
aF0.073999999999999996
aF0.073999999999999996
aF0.073999999999999996
aF0.073999999999999996
aF0.073999999999999996
aF0.073999999999999996
aF0.073999999999999996
aF0.072999999999999995
aF0.070999999999999994
aF0.073999999999999996
aF0.073999999999999996
aF0.073999999999999996
aF0.073999999999999996
aF0.073999999999999996
aF0.073999999999999996
aF0.073999999999999996
aF0.073999999999999996
aF0.073999999999999996
aF0.056000000000000001
aF0.056000000000000001
aF0.045999999999999999
aF0.045999999999999999
aF0.073999999999999996
aF0.073999999999999996
aF0.073999999999999996
aF0.073999999999999996
aF0.066000000000000003
aF0.071999999999999995
aF0.073999999999999996
aF0.073999999999999996
aF0.073999999999999996
aF0.073999999999999996
aF0.073999999999999996
aF0.073999999999999996
aF0.073999999999999996
aF0.073999999999999996
aF0.073999999999999996
aF0.075999999999999998
aF0.085000000000000006
aF0.073999999999999996
aF0.073999999999999996
aF0.073999999999999996
aF0.073999999999999996
aF0.073999999999999996
aF0.073999999999999996
aF0.073999999999999996
aF0.073999999999999996
aF0.073999999999999996
aF0.073999999999999996
aF0.073999999999999996
aF0.073999999999999996
aF0.073999999999999996
aF0.073999999999999996
aF0.070000000000000007
aF0.073999999999999996
aF0.073999999999999996
aF0.073999999999999996
aF0.073999999999999996
aF0.073999999999999996
aF0.073999999999999996
aF0.073999999999999996
aF0.073999999999999996
aF0.073999999999999996
aF0.073999999999999996
aF0.073999999999999996
aF0.073999999999999996
aF0.073999999999999996
aF0.073999999999999996
aF0.073999999999999996
aF0.073999999999999996
aF0.073999999999999996
aF0.073999999999999996
aF0.079000000000000001
aF0.073999999999999996
aF0.073999999999999996
aF0.073999999999999996
aF0.073999999999999996
aF0.073999999999999996
aF0.073999999999999996
aF0.073999999999999996
aF0.073999999999999996
aF0.073999999999999996
aF0.073999999999999996
aF0.073999999999999996
aF0.073999999999999996
aF0.073999999999999996
aF0.073999999999999996
aF0.073999999999999996
aF0.073999999999999996
aF0.073999999999999996
aF0.073999999999999996
aF0.073999999999999996
aF0.073999999999999996
aF0.073999999999999996
aF0.073999999999999996
aF0.073999999999999996
aF0.073999999999999996
aF0.073999999999999996
aF0.073999999999999996
aF0.073999999999999996
aF0.073999999999999996
aF0.073999999999999996
aF0.073999999999999996
aF0.073999999999999996
aF0.073999999999999996
aF0.073999999999999996
aF0.073999999999999996
aF0.073999999999999996
aF0.073999999999999996
aF0.073999999999999996
aF0.073999999999999996
aF0.073999999999999996
aF0.073999999999999996
aF0.073999999999999996
aF0.073999999999999996
aF0.073999999999999996
aF0.073999999999999996
aF0.073999999999999996
aF0.073999999999999996
aF0.073999999999999996
aF0.073999999999999996
aF0.073999999999999996
aF0.073999999999999996
aF0.073999999999999996
aF0.073999999999999996
aF0.073999999999999996
aF0.073999999999999996
aF0.073999999999999996
aF0.073999999999999996
aF0.073999999999999996
aF0.073999999999999996
aF0.073999999999999996
aF0.073999999999999996
aF0.073999999999999996
aF0.073999999999999996
aF0.073999999999999996
aF0.073999999999999996
aF0.073999999999999996
aF0.073999999999999996
aF0.073999999999999996
aF0.073999999999999996
aF0.073999999999999996
aF0.073999999999999996
aF0.073999999999999996
aF0.073999999999999996
aF0.073999999999999996
aF0.073999999999999996
aF0.073999999999999996
aF0.073999999999999996
aF0.073999999999999996
aF0.073999999999999996
aF0.073999999999999996
aF0.073999999999999996
aF0.073999999999999996
aF0.073999999999999996
aF0.073999999999999996
aF0.073999999999999996
aF0.073999999999999996
aF0.073999999999999996
aF0.073999999999999996
aF0.073999999999999996
aF0.073999999999999996
aF0.073999999999999996
aF0.073999999999999996
aF0.073999999999999996
aF0.073999999999999996
aF0.073999999999999996
aF0.073999999999999996
aF0.073999999999999996
aF0.073999999999999996
aF0.073999999999999996
aF0.073999999999999996
aF0.073999999999999996
aF0.073999999999999996
aF0.073999999999999996
aF0.073999999999999996
aF0.073999999999999996
aF0.073999999999999996
aF0.073999999999999996
aF0.073999999999999996
aF0.073999999999999996
aF0.073999999999999996
aF0.073999999999999996
aF0.073999999999999996
aF0.073999999999999996
aF0.073999999999999996
aF0.073999999999999996
aF0.073999999999999996
aF0.073999999999999996
aF0.073999999999999996
aF0.073999999999999996
aF0.073999999999999996
aF0.073999999999999996
aF0.073999999999999996
aF0.073999999999999996
aF0.073999999999999996
aF0.073999999999999996
aF0.073999999999999996
aF0.073999999999999996
aF0.073999999999999996
aF0.073999999999999996
aF0.073999999999999996
aF0.073999999999999996
aF0.073999999999999996
aF0.073999999999999996
aF0.073999999999999996
aF0.073999999999999996
aF0.073999999999999996
aF0.073999999999999996
aF0.073999999999999996
aF0.073999999999999996
aF0.073999999999999996
aF0.073999999999999996
aF0.073999999999999996
aF0.073999999999999996
aF0.073999999999999996
aF0.073999999999999996
aF0.073999999999999996
aF0.073999999999999996
aF0.073999999999999996
aF0.073999999999999996
aF0.073999999999999996
aF0.073999999999999996
aF0.073999999999999996
aF0.073999999999999996
aF0.073999999999999996
aF0.073999999999999996
aF0.073999999999999996
aF0.073999999999999996
aF0.073999999999999996
aF0.073999999999999996
aF0.073999999999999996
aF0.073999999999999996
aF0.073999999999999996
aF0.073999999999999996
aF0.073999999999999996
aF0.073999999999999996
aF0.073999999999999996
aF0.073999999999999996
aF0.073999999999999996
aF0.073999999999999996
aF0.073999999999999996
aF0.073999999999999996
aF0.073999999999999996
aF0.073999999999999996
aF0.073999999999999996
aF0.073999999999999996
aF0.073999999999999996
aF0.073999999999999996
aF0.073999999999999996
aF0.073999999999999996
aF0.073999999999999996
aF0.073999999999999996
aF0.073999999999999996
aF0.073999999999999996
aF0.073999999999999996
aF0.073999999999999996
asg131
(lp141
S'  8  5  4      '
p142
aS'  8  6  3      '
p143
aS'  9  6  3      '
p144
aS'  7  3  4      '
p145
aS' 10 10  1      '
p146
aS' 10  9  2      '
p147
aS'  9  7  2      '
p148
aS'  9  8  1      '
p149
aS'  9  9  0      '
p150
aS'  7  4  3      '
p151
aS' 15  0 15      '
p152
aS'  6  4  3      '
p153
aS' 14  1 14      '
p154
aS'  8  8  0      '
p155
aS'  8  8  1      '
p156
aS'  8  7  2      '
p157
aS'  7  5  2      '
p158
aS' 13  1 12      '
p159
aS' 13  0 13      '
p160
aS' 13  1 13      '
p161
aS'  7  6  1      '
p162
aS'  7  7  0      '
p163
aS'  7  7  1      '
p164
aS' 12  2 11      '
p165
aS' 12  1 12      '
p166
aS' 12  0 12      '
p167
aS' 11  2 10      '
p168
aS' 11  1 10      '
p169
aS' 11  1 11      '
p170
aS' 11  0 11      '
p171
aS'  6  6  1      '
p172
aS' 10  3  8      '
p173
aS' 11  1 10      '
p174
aS' 10  2  9      '
p175
aS' 10  1  9      '
p176
aS' 10  0 10      '
p177
aS' 10  1 10      '
p178
aS'  9  2  7      '
p179
aS'  9  2  8      '
p180
aS'  9  1  8      '
p181
aS' 10  2  9      '
p182
aS'  8  3  6      '
p183
aS'  9  0  9      '
p184
aS'  9  1  9      '
p185
aS'  8  2  7      '
p186
aS'  8  1  7      '
p187
aS'  9  1  8      '
p188
aS'  7  3  5      '
p189
aS'  7  2  5      '
p190
aS'  8  0  8      '
p191
aS'  8  1  8      '
p192
aS' 10  3  8      '
p193
aS'  7  2  6      '
p194
aS'  7  1  6      '
p195
aS'  6  3  4      '
p196
aS'  6  2  4      '
p197
aS'  8  2  7      '
p198
aS'  7  1  7      '
p199
aS'  7  0  7      '
p200
aS'  5  3  3      '
p201
aS'  6  2  5      '
p202
aS'  6  1  5      '
p203
aS'  5  2  3      '
p204
aS'  4  3  2      '
p205
aS'  5  3  2      '
p206
aS'  6  1  6      '
p207
aS'  6  0  6      '
p208
aS'  3  3  0      '
p209
aS'  5  2  4      '
p210
aS'  5  1  4      '
p211
aS'  3  3  1      '
p212
aS'  5  1  5      '
p213
aS'  5  0  5      '
p214
aS'  4  2  3      '
p215
aS'  4  2  2      '
p216
aS'  4  1  3      '
p217
aS'  3  2  2      '
p218
aS'  2  2  0      '
p219
aS'  4  1  4      '
p220
aS'  4  0  4      '
p221
aS'  3  1  2      '
p222
aS'  2  2  1      '
p223
aS'  3  1  3      '
p224
aS'  3  0  3      '
p225
aS'  5  2  3      '
p226
aS'  3  2  2      '
p227
aS'  2  1  2      '
p228
aS'  3  1  2      '
p229
aS'  4  3  2      '
p230
aS'  2  0  2      '
p231
aS'  6  5  2      '
p232
aS'  7  4  3      '
p233
aS'  4  2  2      '
p234
aS'  4  4  1      '
p235
aS'  3  3  1      '
p236
aS'  2  2  1      '
p237
aS'  5  3  2      '
p238
aS'  1  1  1      '
p239
aS'  2  1  1      '
p240
aS'  5  5  0      '
p241
aS'  6  4  2      '
p242
aS'  3  2  1      '
p243
aS'  4  4  0      '
p244
aS'  7  6  1      '
p245
aS'  4  3  1      '
p246
aS'  6  5  1      '
p247
aS'  7  5  2      '
p248
aS'  5  4  1      '
p249
aS'  3  3  0      '
p250
aS'  2  2  0      '
p251
aS'  1  1  0      '
p252
aS'  1  0  1      '
p253
aS'  2  1  1      '
p254
aS'  3  2  1      '
p255
aS'  2  0  2      '
p256
aS'  3  1  2      '
p257
aS'  0  0  0      '
p258
aS'  4  2  2      '
p259
aS'  2  1  2      '
p260
aS'  4  3  1      '
p261
aS'  5  3  2      '
p262
aS'  3  2  2      '
p263
aS'  1  1  1      '
p264
aS'  1  0  1      '
p265
aS'  3  0  3      '
p266
aS'  4  1  3      '
p267
aS'  5  2  3      '
p268
aS'  3  1  3      '
p269
aS'  6  4  2      '
p270
aS'  4  3  2      '
p271
aS'  6  3  3      '
p272
aS'  5  4  1      '
p273
aS'  4  2  3      '
p274
aS'  7  4  3      '
p275
aS'  2  1  2      '
p276
aS'  2  0  2      '
p277
aS'  5  3  3      '
p278
aS'  5  4  2      '
p279
aS'  7  5  2      '
p280
aS'  8  5  3      '
p281
aS'  4  0  4      '
p282
aS'  4  1  4      '
p283
aS'  1  1  0      '
p284
aS'  6  5  1      '
p285
aS'  5  1  4      '
p286
aS'  6  4  3      '
p287
aS'  5  2  4      '
p288
aS'  6  2  4      '
p289
aS'  7  3  4      '
p290
aS'  8  4  4      '
p291
aS'  2  2  1      '
p292
aS'  6  5  2      '
p293
aS'  6  3  4      '
p294
aS'  3  1  3      '
p295
aS'  3  0  3      '
p296
aS'  9  5  4      '
p297
aS'  9  6  3      '
p298
aS'  1  1  1      '
p299
aS'  8  6  2      '
p300
aS'  7  5  3      '
p301
aS'  5  0  5      '
p302
aS'  5  1  5      '
p303
aS'  7  4  4      '
p304
aS'  2  1  1      '
p305
aS' 10  6  4      '
p306
aS'  7  6  1      '
p307
aS'  6  1  5      '
p308
aS'  3  0  3      '
p309
aS'  6  2  5      '
p310
aS'  7  6  2      '
p311
aS'  7  2  5      '
p312
aS'  4  1  4      '
p313
aS'  4  0  4      '
p314
aS'  8  5  4      '
p315
aS'  7  3  5      '
p316
aS'  8  6  3      '
p317
aS' 10  7  3      '
p318
aS'  8  3  5      '
p319
aS'  3  2  2      '
p320
aS' 11  7  4      '
p321
aS'  9  4  5      '
p322
aS'  3  1  2      '
p323
aS'  8  4  5      '
p324
aS'  9  7  2      '
p325
aS' 10  5  5      '
p326
aS'  6  0  6      '
p327
aS'  6  1  6      '
p328
aS'  8  7  1      '
p329
aS' 11  6  5      '
p330
aS'  9  6  4      '
p331
aS'  8  7  2      '
p332
aS'  3  3  1      '
p333
aS'  7  1  6      '
p334
aS'  7  2  6      '
p335
aS'  2  2  0      '
p336
aS'  9  5  5      '
p337
aS'  5  1  5      '
p338
aS'  5  0  5      '
p339
aS'  9  7  3      '
p340
aS'  5  2  3      '
p341
aS'  8  2  6      '
p342
aS'  8  3  6      '
p343
aS'  4  2  3      '
p344
aS'  4  1  3      '
p345
aS'  2  2  1      '
p346
aS' 11  8  3      '
p347
aS' 10  7  4      '
p348
aS' 10  6  5      '
p349
aS'  9  3  6      '
p350
aS'  7  0  7      '
p351
aS'  7  1  7      '
p352
aS'  9  8  1      '
p353
aS'  9  4  6      '
p354
aS'  9  8  2      '
p355
aS' 10  4  6      '
p356
aS'  6  1  6      '
p357
aS'  6  0  6      '
p358
aS'  8  1  7      '
p359
aS'  8  2  7      '
p360
aS' 10  8  3      '
p361
aS'  3  2  1      '
p362
aS' 10  5  6      '
p363
aS'  2  1  2      '
p364
aS' 11  5  6      '
p365
aS'  9  2  7      '
p366
aS'  4  4  1      '
p367
aS'  9  3  7      '
p368
aS'  4  3  2      '
p369
aS'  5  1  4      '
p370
aS'  5  2  4      '
p371
aS'  5  1  4      '
p372
aS' 11  6  6      '
p373
aS' 10  9  2      '
p374
aS'  8  0  8      '
p375
aS'  8  1  8      '
p376
aS' 10  3  7      '
p377
aS' 10  4  7      '
p378
aS' 11  9  2      '
p379
aS'  7  0  7      '
p380
aS'  7  1  7      '
p381
aS'  4  2  2      '
p382
aS'  9  1  8      '
p383
aS'  9  2  8      '
p384
aS'  2  0  2      '
p385
aS' 12  7  6      '
p386
aS' 11  4  7      '
p387
aS' 11  5  7      '
p388
aS'  7  3  4      '
p389
aS'  6  2  5      '
p390
aS'  6  1  5      '
p391
aS'  3  3  0      '
p392
aS' 10  2  8      '
p393
aS' 10  3  8      '
p394
aS'  9  0  9      '
p395
aS'  9  1  9      '
p396
aS'  5  3  3      '
p397
aS' 12  6  7      '
p398
aS'  8  0  8      '
p399
aS'  8  1  8      '
p400
aS'  3  3  1      '
p401
aS'  5  2  3      '
p402
aS'  5  5  1      '
p403
aS' 11  3  8      '
p404
aS' 11  4  8      '
p405
aS' 10  1  9      '
p406
aS' 10  2  9      '
p407
aS'  3  2  2      '
p408
aS'  5  4  2      '
p409
aS'  7  2  6      '
p410
aS'  7  1  6      '
p411
aS' 12  5  8      '
p412
aS' 11  2  9      '
p413
aS' 11  3  9      '
p414
aS' 10  1 10      '
p415
aS' 10  0 10      '
p416
aS'  4  3  1      '
p417
aS'  9  1  9      '
p418
aS'  9  0  9      '
p419
aS'  6  3  4      '
p420
aS'  6  2  4      '
p421
aS' 13  5  8      '
p422
aS' 12  3  9      '
p423
aS' 12  4  9      '
p424
aS' 11  1 10      '
p425
aS' 11  2 10      '
p426
aS'  6  6  1      '
p427
aS'  7  2  5      '
p428
aS'  3  1  3      '
p429
aS'  8  2  7      '
p430
aS'  8  1  7      '
p431
aS'  5  3  2      '
p432
aS' 10  1 10      '
p433
aS' 10  0 10      '
p434
aS' 11  1 11      '
p435
aS' 11  0 11      '
p436
aS' 13  4  9      '
p437
aS' 12  2 10      '
p438
aS' 12  3 10      '
p439
aS'  3  1  2      '
p440
aS'  3  0  3      '
p441
aS'  9  4  5      '
p442
aS'  7  3  5      '
p443
aS'  7  2  5      '
p444
aS'  6  4  3      '
p445
aS'  4  4  0      '
p446
aS' 12  2 11      '
p447
aS' 12  1 11      '
p448
aS'  4  4  1      '
p449
aS'  6  5  2      '
p450
aS' 13  3 10      '
p451
aS'  4  3  2      '
p452
aS'  6  3  3      '
p453
aS'  9  1  8      '
p454
aS'  9  2  8      '
p455
aS' 11  1 11      '
p456
aS' 11  0 11      '
p457
aS' 12  1 12      '
p458
aS' 12  0 12      '
p459
aS' 13  2 11      '
p460
aS' 13  3 11      '
p461
aS'  8  3  6      '
p462
aS'  8  2  6      '
p463
aS' 13  1 12      '
p464
aS' 13  2 12      '
p465
aS'  7  4  4      '
p466
aS' 12  0 12      '
p467
aS' 12  1 12      '
p468
aS' 14  4 11      '
p469
aS'  7  3  4      '
p470
aS' 10  2  9      '
p471
aS' 10  1  9      '
p472
aS'  5  4  1      '
p473
aS'  4  2  3      '
p474
aS' 13  0 13      '
p475
aS' 13  1 13      '
p476
aS' 14  3 12      '
p477
aS'  7  6  2      '
p478
aS'  9  3  7      '
p479
aS'  9  2  7      '
p480
aS'  7  5  3      '
p481
aS' 13  0 13      '
p482
aS' 13  1 13      '
p483
aS' 14  2 13      '
p484
aS' 11  1 10      '
p485
aS' 11  2 10      '
p486
aS'  6  4  2      '
p487
aS'  4  1  3      '
p488
aS'  8  4  5      '
p489
aS'  8  3  5      '
p490
aS'  5  4  2      '
p491
aS' 14  1 14      '
p492
aS' 14  0 14      '
p493
aS'  5  5  0      '
p494
aS'  5  5  1      '
p495
aS'  4  1  4      '
p496
aS' 15  2 13      '
p497
aS'  4  2  2      '
p498
aS'  4  0  4      '
p499
aS' 14  1 14      '
p500
aS' 10  3  8      '
p501
aS' 10  2  8      '
p502
aS'  7  4  3      '
p503
aS' 15  1 14      '
p504
aS' 12  2 11      '
p505
aS' 12  1 11      '
p506
aS'  8  7  2      '
p507
aS'  5  3  3      '
p508
aS' 15  0 15      '
p509
aS'  9  4  6      '
p510
aS'  9  3  6      '
p511
aS'  8  5  4      '
p512
aS' 15  0 15      '
p513
aS'  8  4  4      '
p514
aS' 11  3  9      '
p515
aS' 11  2  9      '
p516
aS'  6  5  1      '
p517
aS'  8  6  3      '
p518
aS' 13  1 12      '
p519
aS' 13  2 12      '
p520
aS' 10  4  7      '
p521
aS' 10  3  7      '
p522
aS'  6  5  2      '
p523
aS'  5  2  4      '
p524
aS'  9  5  5      '
p525
aS'  9  4  5      '
p526
aS'  5  2  3      '
p527
aS' 12  2 10      '
p528
aS' 12  3 10      '
p529
aS' 14  2 13      '
p530
aS'  7  5  2      '
p531
aS'  6  6  0      '
p532
aS'  5  1  4      '
p533
aS'  4  2  3      '
p534
aS'  6  6  1      '
p535
aS'  6  4  3      '
p536
aS' 11  4  8      '
p537
aS' 11  3  8      '
p538
aS'  9  7  3      '
p539
aS'  9  6  4      '
p540
aS'  8  5  3      '
p541
aS'  5  1  5      '
p542
aS'  5  0  5      '
p543
aS' 13  2 11      '
p544
aS' 10  5  6      '
p545
aS' 10  4  6      '
p546
aS'  5  3  2      '
p547
aS'  9  5  4      '
p548
aS' 12  4  9      '
p549
aS' 12  3  9      '
p550
aS'  7  6  1      '
p551
aS'  6  3  4      '
p552
aS' 14  3 12      '
p553
aS' 11  5  7      '
p554
aS' 11  4  7      '
p555
aS'  7  6  2      '
p556
aS' 10  6  5      '
p557
aS'  7  5  3      '
p558
aS' 10  5  5      '
p559
aS'  6  2  4      '
p560
aS' 13  3 10      '
p561
aS'  7  7  0      '
p562
aS'  7  7  1      '
p563
aS'  6  3  3      '
p564
aS' 10  7  4      '
p565
aS'  8  6  2      '
p566
aS'  6  2  5      '
p567
aS' 12  5  8      '
p568
aS'  6  1  5      '
p569
aS' 11  6  6      '
p570
aS' 11  5  6      '
p571
aS'  7  4  4      '
p572
aS'  9  6  3      '
p573
aS'  6  1  6      '
p574
aS'  6  0  6      '
p575
aS' 13  4  9      '
p576
aS' 10  6  4      '
p577
aS'  8  7  1      '
p578
aS'  8  6  3      '
p579
aS'  6  4  2      '
p580
aS' 12  6  7      '
p581
aS'  8  7  2      '
p582
aS'  7  3  4      '
p583
aS' 11  6  5      '
p584
aS'  7  3  5      '
p585
aS'  8  8  0      '
p586
aS'  8  8  1      '
p587
aS'  7  2  5      '
p588
aS'  8  5  4      '
p589
aS'  9  7  2      '
p590
aS'  7  4  3      '
p591
aS' 12  7  6      '
p592
aS'  6  4  3      '
p593
aS'  6  3  4      '
p594
aS'  7  2  6      '
p595
aS'  7  1  6      '
p596
aS'  9  7  3      '
p597
aS' 10  7  3      '
p598
aS'  7  1  7      '
p599
aS'  7  0  7      '
p600
aS'  9  8  1      '
p601
aS'  9  8  2      '
p602
aS'  8  4  5      '
p603
aS' 11  7  4      '
p604
aS'  9  6  4      '
p605
aS'  8  4  4      '
p606
aS'  9  9  0      '
p607
aS'  9  9  1      '
p608
aS'  8  3  5      '
p609
aS'  7  5  2      '
p610
aS'  8  3  6      '
p611
aS'  8  2  6      '
p612
aS' 10  8  2      '
p613
aS'  9  5  5      '
p614
aS' 10  8  3      '
p615
aS'  8  5  3      '
p616
aS' 10  7  4      '
p617
aS'  8  2  7      '
p618
aS'  8  1  7      '
p619
aS' 10  9  1      '
p620
aS' 10  9  2      '
p621
aS' 11  8  3      '
p622
aS'  8  1  8      '
p623
aS'  8  0  8      '
p624
aS'  9  4  5      '
p625
aS' 10 10  0      '
p626
aS' 10 10  1      '
p627
aS'  9  4  6      '
p628
aS'  9  5  4      '
p629
aS' 10  6  5      '
p630
aS'  9  3  6      '
p631
aS' 11  9  2      '
p632
aS' 11  8  4      '
p633
aS'  9  3  7      '
p634
aS' 11  9  3      '
p635
aS'  9  2  7      '
p636
aS'  8  5  4      '
p637
aS' 11 10  1      '
p638
aS' 11 10  2      '
p639
aS'  9  2  8      '
p640
aS'  9  1  8      '
p641
aS'  8  4  5      '
p642
aS' 11  7  5      '
p643
aS' 10  5  6      '
p644
aS'  9  6  3      '
p645
aS' 11 11  0      '
p646
aS' 11 11  1      '
p647
aS' 10  5  5      '
p648
aS'  9  1  9      '
p649
aS'  9  0  9      '
p650
aS' 10  4  6      '
p651
aS' 12  9  4      '
p652
aS' 10  4  7      '
p653
aS' 10  3  7      '
p654
aS' 12 10  3      '
p655
aS' 12  8  5      '
p656
aS' 11  6  6      '
p657
aS' 10  3  8      '
p658
aS' 10  2  8      '
p659
aS' 12 11  1      '
p660
aS' 12 11  2      '
p661
aS' 12 12  0      '
p662
aS' 12 12  1      '
p663
aS' 10  2  9      '
p664
aS' 10  1  9      '
p665
aS' 11  5  6      '
p666
aS' 11  6  5      '
p667
aS' 11  5  7      '
p668
aS' 10  1 10      '
p669
aS' 10  0 10      '
p670
aS' 11  4  7      '
p671
aS' 12  7  6      '
p672
aS' 13 11  2      '
p673
aS' 11  4  8      '
p674
aS' 11  3  8      '
p675
aS' 13 12  1      '
p676
aS' 11  3  9      '
p677
aS' 11  2  9      '
p678
aS' 13 13  0      '
p679
aS' 12  6  7      '
p680
aS' 11  2 10      '
p681
aS' 11  1 10      '
p682
aS' 11  0 11      '
p683
aS' 12  5  8      '
p684
aS' 12  4  9      '
p685
aS' 12  3 10      '
p686
aS' 12  2 11      '
p687
aS' 12  1 12      '
p688
aS' 13  4  9      '
p689
aS' 13  3 10      '
p690
aS' 13  2 11      '
p691
aS' 13  1 12      '
p692
asg135
(lp693
F45
aF45
aF51
aF39
aF57
aF57
aF51
aF51
aF51
aF39
aF87
aF33
aF81
aF15
aF45
aF45
aF39
aF75
aF75
aF25
aF39
aF39
aF13
aF69
aF69
aF23
aF21
aF63
aF21
aF63
aF33
aF57
aF69
aF57
aF19
aF19
aF57
aF51
aF17
aF51
aF63
aF45
aF51
aF17
aF45
aF15
aF57
aF13
aF39
aF15
aF45
aF63
aF13
aF39
aF33
aF11
aF51
aF13
aF39
aF9
aF33
aF11
aF27
aF21
aF27
aF33
aF11
aF15
aF9
aF27
aF5
aF9
aF27
aF21
aF7
aF7
aF5
aF3
aF21
aF7
aF15
aF9
aF5
aF15
aF33
aF7
aF9
aF21
aF27
aF3
aF39
aF45
aF9
aF27
aF7
aF15
aF33
aF1
aF5
aF33
aF13
aF21
aF9
aF45
aF9
aF13
aF45
aF33
aF21
aF5
aF9
aF9
aF5
aF21
aF5
aF21
aF3
aF9
aF15
aF9
aF33
aF7
aF5
aF15
aF21
aF9
aF33
aF7
aF13
aF27
aF13
aF33
aF27
aF45
aF21
aF7
aF11
aF11
aF45
aF17
aF9
aF27
aF15
aF13
aF33
aF39
aF11
aF13
aF45
aF17
aF21
aF39
aF39
aF9
aF27
aF57
aF57
aF5
aF17
aF15
aF33
aF11
aF15
aF7
aF21
aF45
aF13
aF21
aF39
aF15
aF45
aF33
aF11
aF51
aF15
aF51
aF21
aF17
aF9
aF69
aF57
aF27
aF51
aF57
aF21
aF13
aF39
aF17
aF69
aF19
aF51
aF9
aF45
aF15
aF7
aF19
aF13
aF39
aF19
aF33
aF17
aF51
aF33
aF11
aF21
aF69
aF63
aF63
aF57
aF45
aF15
aF57
aF19
aF19
aF21
aF45
aF15
aF17
aF51
aF63
aF27
aF63
aF21
aF69
aF57
aF33
aF19
aF33
aF33
aF13
aF39
aF23
aF63
aF17
aF51
aF21
aF63
aF69
aF51
aF17
aF11
aF57
aF19
aF7
aF75
aF69
aF23
aF45
aF45
aF15
aF27
aF21
aF63
aF57
aF19
aF13
aF75
aF19
aF57
aF9
aF39
aF13
aF69
aF23
aF21
aF63
aF9
aF13
aF17
aF51
aF75
aF69
aF23
aF63
aF21
aF11
aF21
aF63
aF45
aF15
aF81
aF25
aF75
aF69
aF23
aF45
aF45
aF9
aF57
aF19
aF39
aF69
aF23
aF23
aF69
aF81
aF25
aF75
aF27
aF27
aF57
aF17
aF51
aF45
aF11
aF75
aF25
aF33
aF45
aF81
aF33
aF15
aF63
aF21
aF25
aF75
aF75
aF25
aF81
aF27
aF57
aF19
aF81
aF27
aF17
aF27
aF81
aF87
aF51
aF69
aF23
aF39
aF33
aF81
aF27
aF87
aF17
aF21
aF63
aF17
aF87
aF29
aF87
aF75
aF25
aF15
aF11
aF57
aF19
aF13
aF87
aF29
aF39
aF13
aF33
aF93
aF11
aF11
aF93
aF69
aF23
aF51
aF93
aF81
aF27
aF57
aF13
aF93
aF21
aF63
aF57
aF99
aF19
aF25
aF75
aF15
aF57
aF87
aF29
aF69
aF23
aF45
aF13
aF21
aF63
aF39
aF27
aF81
aF93
aF51
aF15
aF39
aF33
aF45
aF45
aF25
aF75
aF21
aF21
aF19
aF13
aF39
aF87
aF69
aF23
aF39
aF63
aF81
aF27
aF51
aF45
aF93
aF25
aF75
aF17
aF69
aF17
aF23
aF15
aF87
aF51
aF17
aF15
aF69
aF19
aF45
aF81
aF15
aF25
aF75
aF17
aF63
aF45
aF15
aF87
aF23
aF19
aF57
aF15
aF81
aF57
aF51
aF75
aF17
aF19
aF57
aF51
aF57
aF63
aF51
aF81
aF45
aF45
aF17
aF51
aF21
aF23
aF17
aF51
aF63
aF21
aF57
aF75
aF21
aF19
aF63
aF21
aF19
aF51
aF57
aF19
aF23
aF21
aF69
aF19
aF69
aF57
aF19
aF23
aF69
aF75
aF57
aF19
aF63
aF23
aF69
aF21
aF63
aF69
aF63
aF75
aF25
aF21
aF25
aF63
aF57
aF75
aF25
aF21
aF63
aF57
aF25
aF69
aF63
aF75
aF25
aF23
aF21
aF63
aF23
aF81
aF69
aF23
aF81
aF81
aF25
aF69
aF23
aF27
aF81
aF27
aF81
aF69
aF23
aF75
aF75
aF25
aF69
aF23
aF75
aF81
aF87
aF25
aF75
aF87
aF25
aF75
aF87
aF81
aF25
aF75
aF75
aF81
aF81
aF81
aF81
aF81
aF87
aF87
aF87
aF87
asg125
(lp694
F610.72400000000005
aF646.45899999999995
aF801.28399999999999
aF457.88
aF1094.546
aF1051.211
aF824.27099999999996
aF856.755
aF896.20799999999997
aF487.23500000000001
aF1204.8530000000001
aF359.36599999999999
aF1058.9390000000001
aF716.923
aF716.86800000000005
aF680.46400000000006
aF505.75599999999997
aF1043.5650000000001
aF922.32399999999996
aF922.32399999999996
aF526.65300000000002
aF557.02999999999997
aF556.90700000000004
aF906.69100000000003
aF795.029
aF795.029
aF779.12900000000002
aF779.12900000000002
aF677.07299999999998
aF677.07299999999998
aF416.57600000000002
aF742.85400000000004
aF779.12900000000002
aF660.89800000000002
aF660.89800000000002
aF568.47299999999996
aF568.47299999999996
aF624.41399999999999
aF552.01400000000001
aF552.01400000000001
aF660.89800000000002
aF515.298
aF469.24599999999998
aF469.24599999999998
aF452.495
aF452.495
aF552.01400000000001
aF415.52199999999999
aF415.47800000000001
aF379.40699999999998
aF379.40699999999998
aF742.85400000000004
aF362.35300000000001
aF362.35199999999998
aF325.14600000000002
aF324.91800000000001
aF452.495
aF298.96899999999999
aF298.96899999999999
aF244.393
aF281.60199999999998
aF281.59399999999999
aF243.34299999999999
aF173.96700000000001
aF263.73899999999998
aF227.94499999999999
aF227.94499999999999
aF117.392
aF210.26499999999999
aF210.21700000000001
aF115.34
aF166.34399999999999
aF166.34299999999999
aF148.41800000000001
aF170.33600000000001
aF148.14099999999999
aF96.391999999999996
aF58.369
aF114.178
aF114.172
aF95.055999999999997
aF55.161000000000001
aF71.465000000000003
aF71.424000000000007
aF243.34299999999999
aF96.391999999999996
aF38.298000000000002
aF95.055999999999997
aF173.96700000000001
aF38.015999999999998
aF387.88499999999999
aF487.23500000000001
aF170.33600000000001
aF195.661
aF115.34
aF55.161000000000001
aF263.73899999999998
aF15.09
aF51.140000000000001
aF296.67700000000002
aF375.43099999999998
aF107.36799999999999
aF196.80199999999999
aF526.65300000000002
aF182.648
aF391.88799999999998
aF505.75599999999997
aF277.33800000000002
aF117.392
aF58.369
aF19.376000000000001
aF13.746
aF51.140000000000001
aF107.36799999999999
aF38.015999999999998
aF95.055999999999997
aF0
aF170.33600000000001
aF38.298000000000002
aF182.648
aF263.73899999999998
aF96.391999999999996
aF15.09
aF13.746
aF71.424000000000007
aF148.14099999999999
aF243.34299999999999
aF71.465000000000003
aF375.43099999999998
aF173.96700000000001
aF356.51499999999999
aF277.33800000000002
aF148.41800000000001
aF487.23500000000001
aF38.298000000000002
aF38.015999999999998
aF244.393
aF271.10599999999999
aF505.75599999999997
aF635.40800000000002
aF114.172
aF114.178
aF19.376000000000001
aF391.88799999999998
aF210.21700000000001
aF359.36599999999999
aF210.26499999999999
aF324.91800000000001
aF457.88
aF608.56500000000005
aF55.161000000000001
aF387.88499999999999
aF325.14600000000002
aF71.465000000000003
aF71.424000000000007
aF776.37699999999995
aF801.28399999999999
aF15.09
aF655.19399999999996
aF493.36900000000003
aF166.34299999999999
aF166.34399999999999
aF458.66899999999998
aF51.140000000000001
aF960.90099999999995
aF526.65300000000002
aF281.59399999999999
aF71.424000000000007
aF281.60199999999998
aF524.34400000000005
aF415.47800000000001
aF114.178
aF114.172
aF610.72400000000005
aF415.52199999999999
aF646.45899999999995
aF985.35199999999998
aF567.697
aF96.391999999999996
aF1162.146
aF737.86099999999999
aF95.055999999999997
aF567.88199999999995
aF824.27099999999996
aF925.43899999999996
aF227.94499999999999
aF227.94499999999999
aF681.68600000000004
aF1129.768
aF781.26800000000003
aF680.46400000000006
aF115.34
aF362.35199999999998
aF362.35300000000001
aF58.369
aF738.46799999999996
aF166.34399999999999
aF166.34299999999999
aF818.69799999999998
aF243.34299999999999
aF515.28899999999999
aF515.298
aF148.41800000000001
aF148.14099999999999
aF55.161000000000001
aF1188.241
aF970.31299999999999
aF927.10199999999998
aF686.48900000000003
aF298.96899999999999
aF298.96899999999999
aF856.755
aF686.52999999999997
aF856.14499999999998
aF875.63199999999995
aF227.94499999999999
aF227.94499999999999
aF452.495
aF452.495
aF1010.111
aF107.36799999999999
aF875.78700000000003
aF38.298000000000002
aF1082.3199999999999
aF624.41399999999999
aF195.661
aF624.41499999999996
aF173.96700000000001
aF210.21700000000001
aF210.26499999999999
aF210.21700000000001
aF1082.808
aF1051.211
aF379.40699999999998
aF379.40699999999998
aF814.45799999999997
aF814.46699999999998
aF1222.3969999999999
aF298.96899999999999
aF298.96899999999999
aF170.33600000000001
aF552.01400000000001
aF552.01400000000001
aF38.015999999999998
aF1307.364
aF1022.327
aF1022.365
aF457.88
aF281.60199999999998
aF281.59399999999999
aF117.392
aF742.85400000000004
aF742.85400000000004
aF469.24599999999998
aF469.24599999999998
aF244.393
aF1247.8150000000001
aF379.40699999999998
aF379.40699999999998
aF115.34
aF243.34299999999999
aF296.10399999999998
aF951.64800000000002
aF951.64999999999998
aF660.89800000000002
aF660.89800000000002
aF96.391999999999996
aF271.10599999999999
aF362.35300000000001
aF362.35199999999998
aF1178.105
aF870.59799999999996
aF870.59799999999996
aF568.47299999999996
aF568.47299999999996
aF182.648
aF469.24599999999998
aF469.24599999999998
aF325.14600000000002
aF324.91800000000001
aF1421.8720000000001
aF1098.058
aF1098.058
aF779.12900000000002
aF779.12900000000002
aF416.57600000000002
aF415.47800000000001
aF71.465000000000003
aF452.495
aF452.495
aF263.73899999999998
aF568.47299999999996
aF568.47299999999996
aF677.07299999999998
aF677.07299999999998
aF1342.9680000000001
aF1007.63
aF1007.63
aF95.055999999999997
aF71.424000000000007
aF737.86099999999999
aF415.52199999999999
aF415.47800000000001
aF359.36599999999999
aF196.80199999999999
aF906.69100000000003
aF906.69100000000003
aF195.661
aF387.88499999999999
aF1253.672
aF173.96700000000001
aF356.51499999999999
aF552.01400000000001
aF552.01400000000001
aF677.07299999999998
aF677.07299999999998
aF795.029
aF795.029
aF1153.9300000000001
aF1153.9300000000001
aF515.298
aF515.28899999999999
aF1043.5650000000001
aF1043.5650000000001
aF458.66899999999998
aF795.029
aF795.029
aF1418.472
aF457.88
aF660.89800000000002
aF660.89800000000002
aF277.33800000000002
aF148.41800000000001
aF922.32399999999996
aF922.32399999999996
aF1309.4770000000001
aF524.34400000000005
aF624.41499999999996
aF624.41399999999999
aF493.36900000000003
aF922.32399999999996
aF922.32399999999996
aF1189.732
aF779.12900000000002
aF779.12900000000002
aF375.43099999999998
aF148.14099999999999
aF567.88199999999995
aF567.697
aF271.10599999999999
aF1058.9390000000001
aF1058.9390000000001
aF296.67700000000002
aF296.10399999999998
aF114.178
aF1474.249
aF170.33600000000001
aF114.172
aF1058.9390000000001
aF742.85400000000004
aF742.85400000000004
aF487.23500000000001
aF1345.1700000000001
aF906.69100000000003
aF906.69100000000003
aF680.46400000000006
aF244.393
aF1204.8530000000001
aF686.52999999999997
aF686.48900000000003
aF610.72400000000005
aF1204.8530000000001
aF608.56500000000005
aF870.59799999999996
aF870.59799999999996
aF391.88799999999998
aF646.45899999999995
aF1043.5650000000001
aF1043.5650000000001
aF814.46699999999998
aF814.45799999999997
aF387.88499999999999
aF210.26499999999999
aF738.46799999999996
aF737.86099999999999
aF243.34299999999999
aF1007.63
aF1007.63
aF1189.732
aF505.75599999999997
aF416.846
aF210.21700000000001
aF148.41800000000001
aF416.57600000000002
aF359.36599999999999
aF951.64999999999998
aF951.64800000000002
aF818.69799999999998
aF781.26800000000003
aF635.40800000000002
aF166.34399999999999
aF166.34299999999999
aF1153.9300000000001
aF875.78700000000003
aF875.63199999999995
aF263.73899999999998
aF776.37699999999995
aF1098.058
aF1098.058
aF526.65300000000002
aF325.14600000000002
aF1309.4770000000001
aF1022.365
aF1022.327
aF524.34400000000005
aF927.10199999999998
aF493.36900000000003
aF925.43899999999996
aF324.91800000000001
aF1253.672
aF557.02999999999997
aF556.90700000000004
aF356.51499999999999
aF970.31299999999999
aF655.19399999999996
aF281.60199999999998
aF1178.105
aF281.59399999999999
aF1082.808
aF1082.3199999999999
aF458.66899999999998
aF801.28399999999999
aF227.94499999999999
aF227.94499999999999
aF1342.9680000000001
aF960.90099999999995
aF681.68600000000004
aF646.45899999999995
aF375.43099999999998
aF1247.8150000000001
aF680.46400000000006
aF457.88
aF1129.768
aF415.52199999999999
aF716.923
aF716.86800000000005
aF415.47800000000001
aF610.72400000000005
aF824.27099999999996
aF487.23500000000001
aF1307.364
aF359.36599999999999
aF325.14600000000002
aF362.35300000000001
aF362.35199999999998
aF818.69799999999998
aF985.35199999999998
aF298.96899999999999
aF298.96899999999999
aF856.755
aF856.14499999999998
aF567.88199999999995
aF1162.146
aF781.26800000000003
aF608.56500000000005
aF896.20799999999997
aF896.18299999999999
aF567.697
aF505.75599999999997
aF515.298
aF515.28899999999999
aF1013.342
aF738.46799999999996
aF1010.111
aF635.40800000000002
aF970.31299999999999
aF452.495
aF452.495
aF1051.5050000000001
aF1051.211
aF1188.241
aF379.40699999999998
aF379.40699999999998
aF737.86099999999999
aF1094.557
aF1094.546
aF686.52999999999997
aF776.37699999999995
aF927.10199999999998
aF686.48900000000003
aF1222.3969999999999
aF1177.913
aF624.41499999999996
aF1220.662
aF624.41399999999999
aF610.72400000000005
aF1265.5650000000001
aF1265.4269999999999
aF552.01400000000001
aF552.01400000000001
aF567.88199999999995
aF1133.6700000000001
aF875.78700000000003
aF801.28399999999999
aF1311.6389999999999
aF1311.635
aF925.43899999999996
aF469.24599999999998
aF469.24599999999998
aF875.63199999999995
aF1404.117
aF814.46699999999998
aF814.45799999999997
aF1450.2349999999999
aF1358.135
aF1082.808
aF742.85400000000004
aF742.85400000000004
aF1498.576
aF1498.511
aF1547.1220000000001
aF1547.1189999999999
aF660.89800000000002
aF660.89800000000002
aF1082.3199999999999
aF1129.768
aF1022.365
aF568.47299999999996
aF568.47299999999996
aF1022.327
aF1307.364
aF1699.077
aF951.64999999999998
aF951.64800000000002
aF1750.192
aF870.59799999999996
aF870.59799999999996
aF1800.6769999999999
aF1247.8150000000001
aF779.12900000000002
aF779.12900000000002
aF677.07299999999998
aF1178.105
aF1098.058
aF1007.63
aF906.69100000000003
aF795.029
aF1342.9680000000001
aF1253.672
aF1153.9300000000001
aF1043.5650000000001
asg129
(lp695
S'          0 0 0'
p696
aS'          0 0 0'
p697
aS'          0 0 0'
p698
aS'          0 0 0'
p699
aS'          0 0 0'
p700
aS'          0 0 0'
p701
aS'          0 0 0'
p702
aS'          0 0 0'
p703
aS'          0 0 0'
p704
aS'          0 0 0'
p705
aS'          0 0 0'
p706
aS'          0 0 0'
p707
aS'          0 0 0'
p708
aS'          0 0 0'
p709
aS'          0 0 0'
p710
aS'          0 0 0'
p711
aS'          0 0 0'
p712
aS'          0 0 0'
p713
aS'          0 0 0'
p714
aS'          0 0 0'
p715
aS'          0 0 0'
p716
aS'          0 0 0'
p717
aS'          0 0 0'
p718
aS'          0 0 0'
p719
aS'          0 0 0'
p720
aS'          0 0 0'
p721
aS'          0 0 0'
p722
aS'          0 0 0'
p723
aS'          0 0 0'
p724
aS'          0 0 0'
p725
aS'          0 0 0'
p726
aS'          0 0 0'
p727
aS'          0 0 0'
p728
aS'          0 0 0'
p729
aS'          0 0 0'
p730
aS'          0 0 0'
p731
aS'          0 0 0'
p732
aS'          0 0 0'
p733
aS'          0 0 0'
p734
aS'          0 0 0'
p735
aS'          0 0 0'
p736
aS'          0 0 0'
p737
aS'          0 0 0'
p738
aS'          0 0 0'
p739
aS'          0 0 0'
p740
aS'          0 0 0'
p741
aS'          0 0 0'
p742
aS'          0 0 0'
p743
aS'          0 0 0'
p744
aS'          0 0 0'
p745
aS'          0 0 0'
p746
aS'          0 0 0'
p747
aS'          0 0 0'
p748
aS'          0 0 0'
p749
aS'          0 0 0'
p750
aS'          0 0 0'
p751
aS'          0 0 0'
p752
aS'          0 0 0'
p753
aS'          0 0 0'
p754
aS'          0 0 0'
p755
aS'          0 0 0'
p756
aS'          0 0 0'
p757
aS'          0 0 0'
p758
aS'          0 0 0'
p759
aS'          0 0 0'
p760
aS'          0 0 0'
p761
aS'          0 0 0'
p762
aS'          0 0 0'
p763
aS'          0 0 0'
p764
aS'          0 0 0'
p765
aS'          0 0 0'
p766
aS'          0 0 0'
p767
aS'          0 0 0'
p768
aS'          0 0 0'
p769
aS'          0 0 0'
p770
aS'          0 0 0'
p771
aS'          0 0 0'
p772
aS'          0 0 0'
p773
aS'          0 0 0'
p774
aS'          0 0 0'
p775
aS'          0 0 0'
p776
aS'          0 0 0'
p777
aS'          0 0 0'
p778
aS'          0 0 0'
p779
aS'          0 0 0'
p780
aS'          0 0 0'
p781
aS'          0 0 0'
p782
aS'          0 0 0'
p783
aS'          0 0 0'
p784
aS'          0 0 0'
p785
aS'          0 0 0'
p786
aS'          0 0 0'
p787
aS'          0 0 0'
p788
aS'          0 0 0'
p789
aS'          0 0 0'
p790
aS'          0 0 0'
p791
aS'          0 0 0'
p792
aS'          0 0 0'
p793
aS'          0 0 0'
p794
aS'          0 0 0'
p795
aS'          0 0 0'
p796
aS'          0 0 0'
p797
aS'          0 0 0'
p798
aS'          0 0 0'
p799
aS'          0 0 0'
p800
aS'          0 0 0'
p801
aS'          0 0 0'
p802
aS'          0 0 0'
p803
aS'          0 0 0'
p804
aS'          0 0 0'
p805
aS'          0 0 0'
p806
aS'          0 0 0'
p807
aS'          0 0 0'
p808
aS'          0 0 0'
p809
aS'          0 0 0'
p810
aS'          0 0 0'
p811
aS'          0 0 0'
p812
aS'          0 0 0'
p813
aS'          0 0 0'
p814
aS'          0 0 0'
p815
aS'          0 0 0'
p816
aS'          0 0 0'
p817
aS'          0 0 0'
p818
aS'          0 0 0'
p819
aS'          0 0 0'
p820
aS'          0 0 0'
p821
aS'          0 0 0'
p822
aS'          0 0 0'
p823
aS'          0 0 0'
p824
aS'          0 0 0'
p825
aS'          0 0 0'
p826
aS'          0 0 0'
p827
aS'          0 0 0'
p828
aS'          0 0 0'
p829
aS'          0 0 0'
p830
aS'          0 0 0'
p831
aS'          0 0 0'
p832
aS'          0 0 0'
p833
aS'          0 0 0'
p834
aS'          0 0 0'
p835
aS'          0 0 0'
p836
aS'          0 0 0'
p837
aS'          0 0 0'
p838
aS'          0 0 0'
p839
aS'          0 0 0'
p840
aS'          0 0 0'
p841
aS'          0 0 0'
p842
aS'          0 0 0'
p843
aS'          0 0 0'
p844
aS'          0 0 0'
p845
aS'          0 0 0'
p846
aS'          0 0 0'
p847
aS'          0 0 0'
p848
aS'          0 0 0'
p849
aS'          0 0 0'
p850
aS'          0 0 0'
p851
aS'          0 0 0'
p852
aS'          0 0 0'
p853
aS'          0 0 0'
p854
aS'          0 0 0'
p855
aS'          0 0 0'
p856
aS'          0 0 0'
p857
aS'          0 0 0'
p858
aS'          0 0 0'
p859
aS'          0 0 0'
p860
aS'          0 0 0'
p861
aS'          0 0 0'
p862
aS'          0 0 0'
p863
aS'          0 0 0'
p864
aS'          0 0 0'
p865
aS'          0 0 0'
p866
aS'          0 0 0'
p867
aS'          0 0 0'
p868
aS'          0 0 0'
p869
aS'          0 0 0'
p870
aS'          0 0 0'
p871
aS'          0 0 0'
p872
aS'          0 0 0'
p873
aS'          0 0 0'
p874
aS'          0 0 0'
p875
aS'          0 0 0'
p876
aS'          0 0 0'
p877
aS'          0 0 0'
p878
aS'          0 0 0'
p879
aS'          0 0 0'
p880
aS'          0 0 0'
p881
aS'          0 0 0'
p882
aS'          0 0 0'
p883
aS'          0 0 0'
p884
aS'          0 0 0'
p885
aS'          0 0 0'
p886
aS'          0 0 0'
p887
aS'          0 0 0'
p888
aS'          0 0 0'
p889
aS'          0 0 0'
p890
aS'          0 0 0'
p891
aS'          0 0 0'
p892
aS'          0 0 0'
p893
aS'          0 0 0'
p894
aS'          0 0 0'
p895
aS'          0 0 0'
p896
aS'          0 0 0'
p897
aS'          0 0 0'
p898
aS'          0 0 0'
p899
aS'          0 0 0'
p900
aS'          0 0 0'
p901
aS'          0 0 0'
p902
aS'          0 0 0'
p903
aS'          0 0 0'
p904
aS'          0 0 0'
p905
aS'          0 0 0'
p906
aS'          0 0 0'
p907
aS'          0 0 0'
p908
aS'          0 0 0'
p909
aS'          0 0 0'
p910
aS'          0 0 0'
p911
aS'          0 0 0'
p912
aS'          0 0 0'
p913
aS'          0 0 0'
p914
aS'          0 0 0'
p915
aS'          0 0 0'
p916
aS'          0 0 0'
p917
aS'          0 0 0'
p918
aS'          0 0 0'
p919
aS'          0 0 0'
p920
aS'          0 0 0'
p921
aS'          0 0 0'
p922
aS'          0 0 0'
p923
aS'          0 0 0'
p924
aS'          0 0 0'
p925
aS'          0 0 0'
p926
aS'          0 0 0'
p927
aS'          0 0 0'
p928
aS'          0 0 0'
p929
aS'          0 0 0'
p930
aS'          0 0 0'
p931
aS'          0 0 0'
p932
aS'          0 0 0'
p933
aS'          0 0 0'
p934
aS'          0 0 0'
p935
aS'          0 0 0'
p936
aS'          0 0 0'
p937
aS'          0 0 0'
p938
aS'          0 0 0'
p939
aS'          0 0 0'
p940
aS'          0 0 0'
p941
aS'          0 0 0'
p942
aS'          0 0 0'
p943
aS'          0 0 0'
p944
aS'          0 0 0'
p945
aS'          0 0 0'
p946
aS'          0 0 0'
p947
aS'          0 0 0'
p948
aS'          0 0 0'
p949
aS'          0 0 0'
p950
aS'          0 0 0'
p951
aS'          0 0 0'
p952
aS'          0 0 0'
p953
aS'          0 0 0'
p954
aS'          0 0 0'
p955
aS'          0 0 0'
p956
aS'          0 0 0'
p957
aS'          0 0 0'
p958
aS'          0 0 0'
p959
aS'          0 0 0'
p960
aS'          0 0 0'
p961
aS'          0 0 0'
p962
aS'          0 0 0'
p963
aS'          0 0 0'
p964
aS'          0 0 0'
p965
aS'          0 0 0'
p966
aS'          0 0 0'
p967
aS'          0 0 0'
p968
aS'          0 0 0'
p969
aS'          0 0 0'
p970
aS'          0 0 0'
p971
aS'          0 0 0'
p972
aS'          0 0 0'
p973
aS'          0 0 0'
p974
aS'          0 0 0'
p975
aS'          0 0 0'
p976
aS'          0 0 0'
p977
aS'          0 0 0'
p978
aS'          0 0 0'
p979
aS'          0 0 0'
p980
aS'          0 0 0'
p981
aS'          0 0 0'
p982
aS'          0 0 0'
p983
aS'          0 0 0'
p984
aS'          0 0 0'
p985
aS'          0 0 0'
p986
aS'          0 0 0'
p987
aS'          0 0 0'
p988
aS'          0 0 0'
p989
aS'          0 0 0'
p990
aS'          0 0 0'
p991
aS'          0 0 0'
p992
aS'          0 0 0'
p993
aS'          0 0 0'
p994
aS'          0 0 0'
p995
aS'          0 0 0'
p996
aS'          0 0 0'
p997
aS'          0 0 0'
p998
aS'          0 0 0'
p999
aS'          0 0 0'
p1000
aS'          0 0 0'
p1001
aS'          0 0 0'
p1002
aS'          0 0 0'
p1003
aS'          0 0 0'
p1004
aS'          0 0 0'
p1005
aS'          0 0 0'
p1006
aS'          0 0 0'
p1007
aS'          0 0 0'
p1008
aS'          0 0 0'
p1009
aS'          0 0 0'
p1010
aS'          0 0 0'
p1011
aS'          0 0 0'
p1012
aS'          0 0 0'
p1013
aS'          0 0 0'
p1014
aS'          0 0 0'
p1015
aS'          0 0 0'
p1016
aS'          0 0 0'
p1017
aS'          0 0 0'
p1018
aS'          0 0 0'
p1019
aS'          0 0 0'
p1020
aS'          0 0 0'
p1021
aS'          0 0 0'
p1022
aS'          0 0 0'
p1023
aS'          0 0 0'
p1024
aS'          0 0 0'
p1025
aS'          0 0 0'
p1026
aS'          0 0 0'
p1027
aS'          0 0 0'
p1028
aS'          0 0 0'
p1029
aS'          0 0 0'
p1030
aS'          0 0 0'
p1031
aS'          0 0 0'
p1032
aS'          0 0 0'
p1033
aS'          0 0 0'
p1034
aS'          0 0 0'
p1035
aS'          0 0 0'
p1036
aS'          0 0 0'
p1037
aS'          0 0 0'
p1038
aS'          0 0 0'
p1039
aS'          0 0 0'
p1040
aS'          0 0 0'
p1041
aS'          0 0 0'
p1042
aS'          0 0 0'
p1043
aS'          0 0 0'
p1044
aS'          0 0 0'
p1045
aS'          0 0 0'
p1046
aS'          0 0 0'
p1047
aS'          0 0 0'
p1048
aS'          0 0 0'
p1049
aS'          0 0 0'
p1050
aS'          0 0 0'
p1051
aS'          0 0 0'
p1052
aS'          0 0 0'
p1053
aS'          0 0 0'
p1054
aS'          0 0 0'
p1055
aS'          0 0 0'
p1056
aS'          0 0 0'
p1057
aS'          0 0 0'
p1058
aS'          0 0 0'
p1059
aS'          0 0 0'
p1060
aS'          0 0 0'
p1061
aS'          0 0 0'
p1062
aS'          0 0 0'
p1063
aS'          0 0 0'
p1064
aS'          0 0 0'
p1065
aS'          0 0 0'
p1066
aS'          0 0 0'
p1067
aS'          0 0 0'
p1068
aS'          0 0 0'
p1069
aS'          0 0 0'
p1070
aS'          0 0 0'
p1071
aS'          0 0 0'
p1072
aS'          0 0 0'
p1073
aS'          0 0 0'
p1074
aS'          0 0 0'
p1075
aS'          0 0 0'
p1076
aS'          0 0 0'
p1077
aS'          0 0 0'
p1078
aS'          0 0 0'
p1079
aS'          0 0 0'
p1080
aS'          0 0 0'
p1081
aS'          0 0 0'
p1082
aS'          0 0 0'
p1083
aS'          0 0 0'
p1084
aS'          0 0 0'
p1085
aS'          0 0 0'
p1086
aS'          0 0 0'
p1087
aS'          0 0 0'
p1088
aS'          0 0 0'
p1089
aS'          0 0 0'
p1090
aS'          0 0 0'
p1091
aS'          0 0 0'
p1092
aS'          0 0 0'
p1093
aS'          0 0 0'
p1094
aS'          0 0 0'
p1095
aS'          0 0 0'
p1096
aS'          0 0 0'
p1097
aS'          0 0 0'
p1098
aS'          0 0 0'
p1099
aS'          0 0 0'
p1100
aS'          0 0 0'
p1101
aS'          0 0 0'
p1102
aS'          0 0 0'
p1103
aS'          0 0 0'
p1104
aS'          0 0 0'
p1105
aS'          0 0 0'
p1106
aS'          0 0 0'
p1107
aS'          0 0 0'
p1108
aS'          0 0 0'
p1109
aS'          0 0 0'
p1110
aS'          0 0 0'
p1111
aS'          0 0 0'
p1112
aS'          0 0 0'
p1113
aS'          0 0 0'
p1114
aS'          0 0 0'
p1115
aS'          0 0 0'
p1116
aS'          0 0 0'
p1117
aS'          0 0 0'
p1118
aS'          0 0 0'
p1119
aS'          0 0 0'
p1120
aS'          0 0 0'
p1121
aS'          0 0 0'
p1122
aS'          0 0 0'
p1123
aS'          0 0 0'
p1124
aS'          0 0 0'
p1125
aS'          0 0 0'
p1126
aS'          0 0 0'
p1127
aS'          0 0 0'
p1128
aS'          0 0 0'
p1129
aS'          0 0 0'
p1130
aS'          0 0 0'
p1131
aS'          0 0 0'
p1132
aS'          0 0 0'
p1133
aS'          0 0 0'
p1134
aS'          0 0 0'
p1135
aS'          0 0 0'
p1136
aS'          0 0 0'
p1137
aS'          0 0 0'
p1138
aS'          0 0 0'
p1139
aS'          0 0 0'
p1140
aS'          0 0 0'
p1141
aS'          0 0 0'
p1142
aS'          0 0 0'
p1143
aS'          0 0 0'
p1144
aS'          0 0 0'
p1145
aS'          0 0 0'
p1146
aS'          0 0 0'
p1147
aS'          0 0 0'
p1148
aS'          0 0 0'
p1149
aS'          0 0 0'
p1150
aS'          0 0 0'
p1151
aS'          0 0 0'
p1152
aS'          0 0 0'
p1153
aS'          0 0 0'
p1154
aS'          0 0 0'
p1155
aS'          0 0 0'
p1156
aS'          0 0 0'
p1157
aS'          0 0 0'
p1158
aS'          0 0 0'
p1159
aS'          0 0 0'
p1160
aS'          0 0 0'
p1161
aS'          0 0 0'
p1162
aS'          0 0 0'
p1163
aS'          0 0 0'
p1164
aS'          0 0 0'
p1165
aS'          0 0 0'
p1166
aS'          0 0 0'
p1167
aS'          0 0 0'
p1168
aS'          0 0 0'
p1169
aS'          0 0 0'
p1170
aS'          0 0 0'
p1171
aS'          0 0 0'
p1172
aS'          0 0 0'
p1173
aS'          0 0 0'
p1174
aS'          0 0 0'
p1175
aS'          0 0 0'
p1176
aS'          0 0 0'
p1177
aS'          0 0 0'
p1178
aS'          0 0 0'
p1179
aS'          0 0 0'
p1180
aS'          0 0 0'
p1181
aS'          0 0 0'
p1182
aS'          0 0 0'
p1183
aS'          0 0 0'
p1184
aS'          0 0 0'
p1185
aS'          0 0 0'
p1186
aS'          0 0 0'
p1187
aS'          0 0 0'
p1188
aS'          0 0 0'
p1189
aS'          0 0 0'
p1190
aS'          0 0 0'
p1191
aS'          0 0 0'
p1192
aS'          0 0 0'
p1193
aS'          0 0 0'
p1194
aS'          0 0 0'
p1195
aS'          0 0 0'
p1196
aS'          0 0 0'
p1197
aS'          0 0 0'
p1198
aS'          0 0 0'
p1199
aS'          0 0 0'
p1200
aS'          0 0 0'
p1201
aS'          0 0 0'
p1202
aS'          0 0 0'
p1203
aS'          0 0 0'
p1204
aS'          0 0 0'
p1205
aS'          0 0 0'
p1206
aS'          0 0 0'
p1207
aS'          0 0 0'
p1208
aS'          0 0 0'
p1209
aS'          0 0 0'
p1210
aS'          0 0 0'
p1211
aS'          0 0 0'
p1212
aS'          0 0 0'
p1213
aS'          0 0 0'
p1214
aS'          0 0 0'
p1215
aS'          0 0 0'
p1216
aS'          0 0 0'
p1217
aS'          0 0 0'
p1218
aS'          0 0 0'
p1219
aS'          0 0 0'
p1220
aS'          0 0 0'
p1221
aS'          0 0 0'
p1222
aS'          0 0 0'
p1223
aS'          0 0 0'
p1224
aS'          0 0 0'
p1225
aS'          0 0 0'
p1226
aS'          0 0 0'
p1227
aS'          0 0 0'
p1228
aS'          0 0 0'
p1229
aS'          0 0 0'
p1230
aS'          0 0 0'
p1231
aS'          0 0 0'
p1232
aS'          0 0 0'
p1233
aS'          0 0 0'
p1234
aS'          0 0 0'
p1235
aS'          0 0 0'
p1236
aS'          0 0 0'
p1237
aS'          0 0 0'
p1238
aS'          0 0 0'
p1239
aS'          0 0 0'
p1240
aS'          0 0 0'
p1241
aS'          0 0 0'
p1242
aS'          0 0 0'
p1243
aS'          0 0 0'
p1244
aS'          0 0 0'
p1245
aS'          0 0 0'
p1246
asg122
(lp1247
F1.1e-23
aF1.01e-23
aF9.1299999999999995e-24
aF1.04e-23
aF1.5200000000000001e-23
aF1.24e-23
aF1.28e-23
aF1.8500000000000001e-23
aF2.4200000000000001e-23
aF1.1899999999999999e-23
aF1.01e-23
aF9.9599999999999997e-24
aF1.8599999999999999e-23
aF1.05e-23
aF3.12e-23
aF1.8599999999999999e-23
aF1.3199999999999999e-23
aF1.01e-23
aF3.2700000000000001e-23
aF1.0900000000000001e-23
aF1.9000000000000001e-23
aF3.0999999999999999e-23
aF1.01e-23
aF1.7299999999999999e-23
aF5.4699999999999994e-23
aF1.82e-23
aF9.4500000000000001e-24
aF2.8299999999999998e-23
aF2.8900000000000001e-23
aF8.6800000000000004e-23
aF1.82e-23
aF1.27e-23
aF9.0999999999999999e-24
aF4.3799999999999998e-23
aF1.4600000000000001e-23
aF4.3600000000000003e-23
aF1.3099999999999999e-22
aF1.88e-23
aF2.1299999999999999e-23
aF6.3999999999999995e-23
aF1.1200000000000001e-23
aF2.6e-23
aF1.8599999999999999e-22
aF6.1999999999999998e-23
aF8.7799999999999997e-23
aF2.9200000000000003e-23
aF1.2e-23
aF1.0900000000000001e-23
aF3.3699999999999999e-23
aF8.32e-23
aF2.4999999999999998e-22
aF9.2000000000000004e-24
aF3.7399999999999998e-23
aF1.1199999999999999e-22
aF3.5999999999999998e-23
aF1.3399999999999999e-23
aF1.07e-23
aF1.05e-22
aF3.15e-22
aF1.07e-23
aF1.3200000000000001e-22
aF4.43e-23
aF4.3300000000000002e-23
aF2.9699999999999999e-23
aF1.08e-23
aF3.7e-22
aF1.23e-22
aF1.6599999999999999e-23
aF4.6699999999999999e-23
aF1.43e-22
aF1.4600000000000001e-23
aF1.3399999999999999e-22
aF4.02e-22
aF1.27e-22
aF1.08e-23
aF4.5099999999999998e-23
aF3.4499999999999997e-23
aF9.6899999999999994e-24
aF3.9499999999999999e-22
aF1.3200000000000001e-22
aF9.1400000000000001e-23
aF1.13e-22
aF1.1199999999999999e-22
aF3.3999999999999998e-22
aF1.0200000000000001e-23
aF1.0299999999999999e-23
aF2.37e-22
aF3.6700000000000001e-23
aF3.51e-23
aF7.3899999999999999e-23
aF1.3800000000000001e-23
aF9.8400000000000001e-24
aF1.8599999999999999e-23
aF4.0600000000000001e-23
aF2.0400000000000001e-23
aF6.0600000000000003e-23
aF6.3499999999999999e-23
aF5.8400000000000005e-23
aF3.8000000000000001e-23
aF3.8699999999999998e-23
aF1.9000000000000001e-23
aF1.8400000000000001e-22
aF3.2800000000000001e-23
aF2.1100000000000001e-23
aF6.2199999999999999e-23
aF2.08e-23
aF3.8000000000000001e-23
aF1.2900000000000001e-22
aF1.95e-22
aF9.2000000000000004e-23
aF2.5399999999999999e-22
aF4.3499999999999998e-22
aF1.8299999999999999e-22
aF5.0899999999999996e-22
aF1.3399999999999999e-22
aF5.9600000000000001e-22
aF1.0299999999999999e-22
aF2.0300000000000001e-22
aF3.2299999999999999e-22
aF1.3200000000000001e-22
aF4.8800000000000004e-22
aF1.3799999999999999e-22
aF1.13e-22
aF4.2899999999999997e-22
aF4.25e-22
aF1.7999999999999999e-22
aF4.9599999999999998e-22
aF1.4200000000000001e-22
aF1.0900000000000001e-22
aF3.8200000000000001e-22
aF1.27e-22
aF2.7899999999999998e-22
aF5.3599999999999998e-22
aF2.5099999999999999e-22
aF5.81e-22
aF1.9899999999999999e-22
aF1.5800000000000001e-22
aF9.8199999999999997e-23
aF1.92e-22
aF4.7400000000000002e-23
aF1.5500000000000001e-22
aF4.6599999999999996e-22
aF6.3200000000000003e-22
aF6.1599999999999996e-23
aF5.3299999999999997e-22
aF3.44e-22
aF1.8100000000000001e-22
aF1.4200000000000001e-22
aF2.8100000000000001e-22
aF5.4399999999999999e-23
aF2.9300000000000002e-22
aF1.98e-22
aF4.4099999999999998e-22
aF2.3500000000000001e-22
aF7.0699999999999998e-22
aF8.5100000000000002e-23
aF7.0800000000000002e-23
aF1.3e-22
aF3.4999999999999999e-23
aF7.2100000000000002e-23
aF4.6700000000000003e-22
aF1.56e-22
aF9.8500000000000004e-23
aF1.9899999999999999e-22
aF1.3199999999999999e-23
aF1.1199999999999999e-22
aF1.65e-22
aF1.05e-23
aF4.9800000000000002e-22
aF3.9400000000000002e-23
aF3.64e-22
aF7.3799999999999997e-22
aF2.4600000000000001e-22
aF1.7100000000000001e-22
aF1.23e-22
aF1.2e-22
aF1.07e-23
aF7.2300000000000003e-23
aF1.9299999999999999e-22
aF1.6599999999999999e-23
aF1.1e-22
aF6.5100000000000001e-22
aF2.2499999999999999e-22
aF5.33e-23
aF1.6599999999999999e-23
aF1.4500000000000001e-22
aF4.3499999999999998e-22
aF2.0500000000000001e-23
aF2.0400000000000001e-23
aF2.9100000000000002e-23
aF6.3099999999999997e-23
aF6.1599999999999996e-23
aF4.25e-22
aF1.4200000000000001e-22
aF3.5400000000000002e-22
aF3.9500000000000002e-23
aF2.3299999999999998e-22
aF6.9799999999999998e-22
aF1.9800000000000001e-23
aF2.6999999999999998e-23
aF9.5700000000000003e-23
aF2.8799999999999998e-22
aF6.7500000000000003e-22
aF2.2900000000000001e-22
aF9.6799999999999995e-22
aF1.36e-23
aF3.9899999999999998e-23
aF5.5099999999999996e-23
aF1.5800000000000001e-22
aF3.7900000000000001e-22
aF1.26e-22
aF2.9799999999999999e-23
aF5.3200000000000005e-23
aF1.01e-23
aF2.4599999999999999e-23
aF6.0899999999999999e-22
aF2.0300000000000001e-22
aF1.13e-22
aF3.3999999999999998e-22
aF2.6500000000000002e-23
aF7.6599999999999996e-22
aF7.6299999999999998e-23
aF2.0899999999999999e-22
aF3.0100000000000001e-23
aF2.1000000000000001e-22
aF9.2299999999999999e-23
aF7.0100000000000005e-23
aF4.5800000000000002e-22
aF1.4500000000000001e-23
aF2.17e-22
aF6.5400000000000001e-22
aF1.07e-23
aF1.3e-23
aF1.0299999999999999e-22
aF3.09e-22
aF3.5300000000000001e-23
aF1.0600000000000001e-22
aF1.0200000000000001e-23
aF4.9599999999999998e-22
aF1.65e-22
aF2.1500000000000002e-22
aF2.5399999999999999e-22
aF8.47e-23
aF3.4899999999999999e-23
aF1.2200000000000001e-23
aF4.5900000000000002e-23
aF1.5399999999999999e-23
aF2.4400000000000001e-23
aF5.6500000000000002e-22
aF1.88e-22
aF1.51e-21
aF4.7999999999999999e-23
aF1.4399999999999999e-22
aF2.3800000000000002e-22
aF7.93e-23
aF1.82e-22
aF1.7800000000000001e-23
aF1.26e-22
aF3.7799999999999999e-22
aF5.0599999999999996e-22
aF5.8700000000000001e-22
aF1.3300000000000001e-23
aF6.6500000000000001e-23
aF2.22e-23
aF5.9599999999999999e-23
aF1.79e-22
aF1.7100000000000001e-22
aF9.2900000000000002e-23
aF1.5e-22
aF4.5099999999999996e-22
aF2.6500000000000002e-23
aF9.2799999999999996e-23
aF3.0899999999999998e-23
aF1.7299999999999999e-22
aF5.7600000000000001e-23
aF2.9900000000000002e-22
aF9.0700000000000004e-23
aF2.7200000000000001e-22
aF4.9599999999999998e-22
aF1.6800000000000001e-22
aF9.2199999999999996e-24
aF1.31e-23
aF3.9300000000000001e-23
aF1.1900000000000001e-22
aF3.9600000000000002e-23
aF1.62e-23
aF9.4299999999999994e-24
aF5.1599999999999998e-23
aF3.3600000000000001e-22
aF1.1199999999999999e-22
aF5.9399999999999998e-22
aF1.85e-22
aF6.1599999999999996e-23
aF3.9600000000000002e-23
aF1.1900000000000001e-22
aF1.43e-23
aF1.88e-23
aF5.6399999999999996e-23
aF1.46e-22
aF1.4500000000000001e-22
aF1.0299999999999999e-23
aF1.3200000000000001e-22
aF3.96e-22
aF3.6899999999999999e-22
aF5.9000000000000001e-22
aF7.4700000000000002e-23
aF2.4900000000000001e-23
aF1.8099999999999998e-21
aF1.3099999999999999e-22
aF2.1800000000000001e-23
aF8.1000000000000001e-22
aF1.49e-22
aF2.34e-22
aF7.8099999999999994e-23
aF3.9600000000000002e-23
aF1.1900000000000001e-22
aF7.7199999999999996e-23
aF2.5700000000000001e-23
aF3.2399999999999999e-23
aF1.08e-23
aF2.89e-22
aF9.6300000000000006e-23
aF4.4500000000000001e-23
aF1.4799999999999999e-23
aF1.0900000000000001e-22
aF2.4200000000000001e-23
aF7.2500000000000004e-23
aF1.1500000000000001e-23
aF3.41e-22
aF1.5399999999999999e-22
aF5.1400000000000003e-23
aF9.5200000000000007e-22
aF3.21e-22
aF4.7699999999999998e-23
aF1.5900000000000001e-23
aF1.7700000000000001e-23
aF1.69e-23
aF6.5499999999999996e-23
aF1.9599999999999999e-22
aF6.7100000000000003e-23
aF4.2000000000000002e-23
aF1.3999999999999999e-23
aF2.5099999999999999e-23
aF9.5900000000000004e-23
aF3.1999999999999998e-23
aF1.7100000000000001e-22
aF8.58e-23
aF2.4199999999999999e-22
aF8.1299999999999997e-23
aF3.2700000000000001e-22
aF2.7900000000000003e-23
aF9.2999999999999994e-24
aF1.73e-21
aF5.8499999999999997e-22
aF1.4099999999999999e-22
aF9.1200000000000006e-24
aF3.7599999999999999e-23
aF4.7000000000000001e-23
aF2.3100000000000001e-23
aF1.2499999999999999e-22
aF4.1800000000000001e-23
aF3.1399999999999998e-22
aF1.3499999999999999e-23
aF5.6500000000000002e-23
aF1.88e-23
aF1.7200000000000001e-23
aF1.4500000000000001e-22
aF1.5499999999999999e-23
aF5.3999999999999997e-23
aF1.62e-22
aF1.8299999999999999e-22
aF1.21e-23
aF6.9100000000000001e-23
aF2.5099999999999999e-23
aF7.5300000000000005e-23
aF2.9800000000000001e-22
aF8.6699999999999998e-23
aF3.1600000000000002e-23
aF1.05e-23
aF1.01e-22
aF3.3599999999999999e-23
aF9.4999999999999994e-22
aF8.4299999999999999e-23
aF4.3100000000000001e-23
aF1.33e-22
aF2.6e-22
aF1.43e-23
aF4.2799999999999999e-23
aF1.6799999999999999e-23
aF4.1499999999999998e-22
aF4.77e-22
aF2.5099999999999999e-22
aF1.63e-23
aF1.4399999999999999e-21
aF4.7499999999999997e-22
aF1.96e-23
aF5.8700000000000001e-23
aF9.9599999999999997e-24
aF2.8800000000000001e-23
aF6.89e-23
aF4.1499999999999999e-23
aF1.2499999999999999e-22
aF2.3000000000000001e-23
aF7.9999999999999997e-23
aF2.6899999999999998e-23
aF6.5200000000000001e-23
aF1.1499999999999999e-22
aF3.2199999999999998e-23
aF1.07e-23
aF7.2400000000000002e-22
aF2.86e-22
aF1.18e-23
aF1.5200000000000001e-23
aF4.5700000000000001e-23
aF2.5299999999999998e-22
aF6.0099999999999995e-23
aF1.4699999999999999e-22
aF2.1800000000000001e-23
aF8.9600000000000005e-23
aF1.6699999999999999e-23
aF1.02e-21
aF3.3999999999999998e-22
aF6.0400000000000002e-23
aF3.3000000000000002e-23
aF1.0299999999999999e-22
aF2.0700000000000001e-22
aF2.4300000000000001e-23
aF6.9399999999999996e-23
aF1.17e-23
aF3.5799999999999997e-23
aF8.5900000000000006e-23
aF1.2900000000000001e-22
aF1.04e-22
aF3.4799999999999998e-23
aF1.2200000000000001e-23
aF1.9800000000000001e-23
aF1.6699999999999999e-22
aF3.4500000000000002e-22
aF1.0900000000000001e-23
aF1.8400000000000001e-23
aF5.1399999999999999e-22
aF2.1000000000000001e-22
aF2.9299999999999997e-23
aF7.0100000000000005e-23
aF2.11e-22
aF6.3200000000000003e-22
aF2.1200000000000002e-22
aF2.0300000000000001e-22
aF2.08e-22
aF9.4299999999999997e-23
aF1.3499999999999999e-23
aF1.7200000000000001e-23
aF2.08e-23
aF5.33e-23
aF1.5999999999999999e-22
aF7.6299999999999998e-23
aF2.5600000000000001e-23
aF2.7500000000000001e-23
aF8.2599999999999997e-23
aF2.9699999999999999e-22
aF1e-22
aF1.6400000000000001e-22
aF2.9200000000000003e-23
aF4.7599999999999997e-23
aF4.2000000000000002e-23
aF3.4500000000000002e-22
aF1.1499999999999999e-22
aF5.4199999999999998e-23
aF1.5499999999999999e-23
aF1.5e-22
aF5.0100000000000003e-23
aF4.04e-23
aF3.5799999999999997e-23
aF1.2900000000000001e-22
aF1.3399999999999999e-23
aF8.9699999999999999e-23
aF1.1600000000000001e-22
aF3.8699999999999998e-23
aF5.1100000000000002e-23
aF1.5399999999999999e-22
aF4.2100000000000002e-23
aF6.1900000000000003e-23
aF2.0599999999999999e-23
aF1e-22
aF5.5800000000000005e-23
aF1.6699999999999999e-22
aF3.5500000000000002e-23
aF5.8700000000000001e-23
aF6.3200000000000003e-23
aF1.07e-22
aF6.0899999999999999e-23
aF1.6400000000000001e-23
aF3.3199999999999997e-23
aF2.1100000000000001e-23
aF9.9800000000000004e-23
aF1.63e-23
aF6.9799999999999998e-23
aF2.3299999999999999e-23
aF2.6500000000000002e-23
aF7.9599999999999995e-23
aF1.1500000000000001e-23
aF1.14e-23
aF6.24e-23
aF1.5399999999999999e-23
aF7.2500000000000004e-23
aF2.4200000000000001e-23
aF1.6799999999999999e-23
aF1.4699999999999999e-23
aF4.4099999999999999e-23
aF2.09e-23
aF2.3299999999999999e-23
aF6.5299999999999995e-23
aF2.1800000000000001e-23
aF2.7099999999999999e-23
aF1.7100000000000001e-23
aF1.05e-23
aF6.2600000000000001e-23
aF2.09e-23
aF9.4100000000000002e-24
aF2.8299999999999998e-23
aF9.3700000000000003e-24
aF2.8099999999999998e-23
aF5.1799999999999999e-23
aF1.7299999999999999e-23
aF3.0899999999999998e-23
aF2.0500000000000001e-23
aF1.17e-23
aF2.9799999999999999e-23
aF9.9300000000000002e-24
aF3.5400000000000001e-23
aF1.43e-23
aF1.0200000000000001e-23
aF1.2500000000000001e-23
aF3.7599999999999999e-23
aF1.0200000000000001e-23
aF1.24e-23
aF3.7199999999999998e-23
aF9.8199999999999994e-24
aF1.62e-23
aF1.07e-23
aF3.1899999999999997e-23
aF1.9100000000000001e-23
aF1.8599999999999999e-23
aF2.0400000000000001e-23
aF2.1000000000000001e-23
aF1.8699999999999999e-23
aF1.17e-23
aF9.2900000000000005e-24
aF1.0599999999999999e-23
aF1.1200000000000001e-23
aF1.05e-23
asg126
(lp1248
F0.75
aF0.75
aF0.75
aF0.75
aF0.75
aF0.75
aF0.75
aF0.75
aF0.75
aF0.75
aF0.75
aF0.75
aF0.75
aF0.75
aF0.75
aF0.75
aF0.75
aF0.75
aF0.75
aF0.75
aF0.75
aF0.75
aF0.75
aF0.75
aF0.75
aF0.75
aF0.75
aF0.75
aF0.75
aF0.75
aF0.75
aF0.75
aF0.75
aF0.75
aF0.75
aF0.75
aF0.75
aF0.75
aF0.75
aF0.75
aF0.75
aF0.75
aF0.75
aF0.75
aF0.75
aF0.75
aF0.75
aF0.75
aF0.75
aF0.75
aF0.75
aF0.75
aF0.75
aF0.75
aF0.75
aF0.75
aF0.75
aF0.75
aF0.75
aF0.75
aF0.75
aF0.75
aF0.75
aF0.75
aF0.75
aF0.75
aF0.75
aF0.75
aF0.75
aF0.75
aF0.75
aF0.75
aF0.75
aF0.75
aF0.75
aF0.75
aF0.75
aF0.75
aF0.75
aF0.75
aF0.75
aF0.75
aF0.75
aF0.75
aF0.75
aF0.75
aF0.75
aF0.75
aF0.75
aF0.75
aF0.75
aF0.75
aF0.75
aF0.75
aF0.75
aF0.75
aF0.75
aF0.75
aF0.75
aF0.75
aF0.75
aF0.75
aF0.75
aF0.75
aF0.75
aF0.75
aF0.75
aF0.75
aF0.75
aF0.75
aF0.75
aF0.75
aF0.75
aF0.75
aF0.75
aF0.75
aF0.75
aF0.75
aF0.75
aF0.75
aF0.75
aF0.75
aF0.75
aF0.75
aF0.75
aF0.75
aF0.75
aF0.75
aF0.75
aF0.75
aF0.75
aF0.75
aF0.75
aF0.75
aF0.75
aF0.75
aF0.75
aF0.75
aF0.75
aF0.75
aF0.75
aF0.75
aF0.75
aF0.75
aF0.75
aF0.75
aF0.75
aF0.75
aF0.75
aF0.75
aF0.75
aF0.75
aF0.75
aF0.75
aF0.75
aF0.75
aF0.75
aF0.75
aF0.75
aF0.75
aF0.75
aF0.75
aF0.75
aF0.75
aF0.75
aF0.75
aF0.75
aF0.75
aF0.75
aF0.75
aF0.75
aF0.75
aF0.75
aF0.75
aF0.75
aF0.75
aF0.75
aF0.75
aF0.75
aF0.75
aF0.75
aF0.75
aF0.75
aF0.75
aF0.75
aF0.75
aF0.75
aF0.75
aF0.75
aF0.75
aF0.75
aF0.75
aF0.75
aF0.75
aF0.75
aF0.75
aF0.75
aF0.75
aF0.75
aF0.75
aF0.75
aF0.75
aF0.75
aF0.75
aF0.75
aF0.75
aF0.75
aF0.75
aF0.75
aF0.75
aF0.75
aF0.75
aF0.75
aF0.75
aF0.75
aF0.75
aF0.75
aF0.75
aF0.75
aF0.75
aF0.75
aF0.75
aF0.75
aF0.75
aF0.75
aF0.75
aF0.75
aF0.75
aF0.75
aF0.75
aF0.75
aF0.75
aF0.75
aF0.75
aF0.75
aF0.75
aF0.75
aF0.75
aF0.75
aF0.75
aF0.75
aF0.75
aF0.75
aF0.75
aF0.75
aF0.75
aF0.75
aF0.75
aF0.75
aF0.75
aF0.75
aF0.75
aF0.75
aF0.75
aF0.75
aF0.75
aF0.75
aF0.75
aF0.75
aF0.75
aF0.75
aF0.75
aF0.75
aF0.75
aF0.75
aF0.75
aF0.75
aF0.75
aF0.75
aF0.75
aF0.75
aF0.75
aF0.75
aF0.75
aF0.75
aF0.75
aF0.75
aF0.75
aF0.75
aF0.75
aF0.75
aF0.75
aF0.75
aF0.75
aF0.75
aF0.75
aF0.75
aF0.75
aF0.75
aF0.75
aF0.75
aF0.75
aF0.75
aF0.75
aF0.75
aF0.75
aF0.75
aF0.75
aF0.75
aF0.75
aF0.75
aF0.75
aF0.75
aF0.75
aF0.75
aF0.75
aF0.75
aF0.75
aF0.75
aF0.75
aF0.75
aF0.75
aF0.75
aF0.75
aF0.75
aF0.75
aF0.75
aF0.75
aF0.75
aF0.75
aF0.75
aF0.75
aF0.75
aF0.75
aF0.75
aF0.75
aF0.75
aF0.75
aF0.75
aF0.75
aF0.75
aF0.75
aF0.75
aF0.75
aF0.75
aF0.75
aF0.75
aF0.75
aF0.75
aF0.75
aF0.75
aF0.75
aF0.75
aF0.75
aF0.75
aF0.75
aF0.75
aF0.75
aF0.75
aF0.75
aF0.75
aF0.75
aF0.75
aF0.75
aF0.75
aF0.75
aF0.75
aF0.75
aF0.75
aF0.75
aF0.75
aF0.75
aF0.75
aF0.75
aF0.75
aF0.75
aF0.75
aF0.75
aF0.75
aF0.75
aF0.75
aF0.75
aF0.75
aF0.75
aF0.75
aF0.75
aF0.75
aF0.75
aF0.75
aF0.75
aF0.75
aF0.75
aF0.75
aF0.75
aF0.75
aF0.75
aF0.75
aF0.75
aF0.75
aF0.75
aF0.75
aF0.75
aF0.75
aF0.75
aF0.75
aF0.75
aF0.75
aF0.75
aF0.75
aF0.75
aF0.75
aF0.75
aF0.75
aF0.75
aF0.75
aF0.75
aF0.75
aF0.75
aF0.75
aF0.75
aF0.75
aF0.75
aF0.75
aF0.75
aF0.75
aF0.75
aF0.75
aF0.75
aF0.75
aF0.75
aF0.75
aF0.75
aF0.75
aF0.75
aF0.75
aF0.75
aF0.75
aF0.75
aF0.75
aF0.75
aF0.75
aF0.75
aF0.75
aF0.75
aF0.75
aF0.75
aF0.75
aF0.75
aF0.75
aF0.75
aF0.75
aF0.75
aF0.75
aF0.75
aF0.75
aF0.75
aF0.75
aF0.75
aF0.75
aF0.75
aF0.75
aF0.75
aF0.75
aF0.75
aF0.75
aF0.75
aF0.75
aF0.75
aF0.75
aF0.75
aF0.75
aF0.75
aF0.75
aF0.75
aF0.75
aF0.75
aF0.75
aF0.75
aF0.75
aF0.75
aF0.75
aF0.75
aF0.75
aF0.75
aF0.75
aF0.75
aF0.75
aF0.75
aF0.75
aF0.75
aF0.75
aF0.75
aF0.75
aF0.75
aF0.75
aF0.75
aF0.75
aF0.75
aF0.75
aF0.75
aF0.75
aF0.75
aF0.75
aF0.75
aF0.75
aF0.75
aF0.75
aF0.75
aF0.75
aF0.75
aF0.75
aF0.75
aF0.75
aF0.75
aF0.75
aF0.75
aF0.75
aF0.75
aF0.75
aF0.75
aF0.75
aF0.75
aF0.75
aF0.75
aF0.75
aF0.75
aF0.75
aF0.75
aF0.75
aF0.75
aF0.75
aF0.75
aF0.75
aF0.75
aF0.75
aF0.75
aF0.75
aF0.75
aF0.75
aF0.75
aF0.75
aF0.75
aF0.75
aF0.75
aF0.75
aF0.75
aF0.75
aF0.75
aF0.75
aF0.75
aF0.75
aF0.75
aF0.75
aF0.75
aF0.75
aF0.75
aF0.75
aF0.75
aF0.75
aF0.75
aF0.75
asg121
(lp1249
F994.12719700000002
aF1003.4533699999999
aF1005.72705
aF1009.40332
aF1011.64502
aF1012.23511
aF1021.0647
aF1025.40967
aF1025.42383
aF1026.5090299999999
aF1028.6733400000001
aF1036.24829
aF1039.3051800000001
aF1039.94507
aF1040.1159700000001
aF1043.2783199999999
aF1044.5481
aF1048.06152
aF1049.84375
aF1049.84375
aF1054.38672
aF1055.18604
aF1055.56836
aF1057.7714800000001
aF1060.28711
aF1060.28711
aF1067.3938000000001
aF1067.3938000000001
aF1070.63257
aF1070.63257
aF1071.94849
aF1072.2019
aF1076.1870100000001
aF1076.9243200000001
aF1076.9245599999999
aF1080.87769
aF1080.87769
aF1080.9555700000001
aF1086.3593699999999
aF1086.3596199999999
aF1086.80762
aF1089.5537099999999
aF1091.0205100000001
aF1091.0205100000001
aF1095.6938500000001
aF1095.6958
aF1097.3364300000001
aF1097.93506
aF1098.2665999999999
aF1101.05835
aF1101.05835
aF1103.66821
aF1104.9201700000001
aF1104.93164
aF1105.7182600000001
aF1107.2072800000001
aF1107.7722200000001
aF1110.9887699999999
aF1110.98901
aF1112.2665999999999
aF1114.0124499999999
aF1114.08008
aF1117.48901
aF1118.5830100000001
aF1120.5864300000001
aF1120.80908
aF1120.8103000000001
aF1121.9292
aF1122.85205
aF1123.2353499999999
aF1127.34229
aF1130.5144
aF1130.5222200000001
aF1131.0205100000001
aF1131.0957000000001
aF1132.8442399999999
aF1138.4436000000001
aF1139.59619
aF1140.0839800000001
aF1140.1389200000001
aF1144.2648899999999
aF1147.35645
aF1149.40137
aF1149.76953
aF1152.27124
aF1157.9186999999999
aF1158.16797
aF1159.20532
aF1159.4853499999999
aF1159.9489699999999
aF1162.41968
aF1162.67749
aF1162.7810099999999
aF1165.1711399999999
aF1165.64429
aF1166.03223
aF1167.12573
aF1167.4851100000001
aF1169.72632
aF1170.5087900000001
aF1171.4802199999999
aF1172.0705599999999
aF1173.0605499999999
aF1173.96631
aF1174.0107399999999
aF1175.05396
aF1175.0546899999999
aF1175.08618
aF1175.1582000000001
aF1176.46704
aF1177.0900899999999
aF1188.7714800000001
aF1191.5424800000001
aF1196.1704099999999
aF1196.8198199999999
aF1197.4938999999999
aF1197.9650899999999
aF1199.5271
aF1201.0231900000001
aF1202.8208
aF1203.44751
aF1205.0390600000001
aF1205.77637
aF1207.44751
aF1208.0144
aF1208.51855
aF1209.08008
aF1209.5197800000001
aF1209.5966800000001
aF1210.35815
aF1210.42651
aF1211.18677
aF1212.4143099999999
aF1213.3845200000001
aF1215.96387
aF1216.29492
aF1216.43335
aF1216.85718
aF1217.9858400000001
aF1218.6008300000001
aF1218.9445800000001
aF1219.2751499999999
aF1219.9453100000001
aF1220.5876499999999
aF1220.6474599999999
aF1221.6735799999999
aF1221.8606
aF1221.9929199999999
aF1222.9311499999999
aF1223.9497100000001
aF1224.2771
aF1224.3315399999999
aF1225.15796
aF1225.39355
aF1225.4411600000001
aF1225.9785199999999
aF1226.39624
aF1227.5925299999999
aF1228.12598
aF1228.1337900000001
aF1229.27124
aF1229.3305700000001
aF1229.35229
aF1229.84473
aF1230.01099
aF1230.3305700000001
aF1231.8627899999999
aF1232.1142600000001
aF1232.14185
aF1232.52368
aF1234.43506
aF1234.5766599999999
aF1234.5830100000001
aF1234.61133
aF1235.37427
aF1235.7048299999999
aF1236.6010699999999
aF1236.6508799999999
aF1236.72461
aF1236.75342
aF1238.2358400000001
aF1238.3964800000001
aF1239.1293900000001
aF1239.1752899999999
aF1239.3273899999999
aF1239.3281199999999
aF1239.3383799999999
aF1239.9960900000001
aF1240.6997100000001
aF1241.03369
aF1241.16724
aF1241.3186000000001
aF1242.4997599999999
aF1242.5568800000001
aF1243.0627400000001
aF1243.57422
aF1243.6142600000001
aF1243.61499
aF1244.18408
aF1245.18091
aF1245.8442399999999
aF1246.07617
aF1247.1962900000001
aF1247.5341800000001
aF1248.3769500000001
aF1248.4716800000001
aF1248.6093699999999
aF1248.9033199999999
aF1249.15698
aF1249.2189900000001
aF1249.2207000000001
aF1249.4362799999999
aF1249.8991699999999
aF1250.0239300000001
aF1252.12402
aF1252.5207499999999
aF1252.521
aF1252.86328
aF1252.8745100000001
aF1253.31592
aF1253.4643599999999
aF1254.09229
aF1254.25244
aF1254.38159
aF1256.73047
aF1256.7622100000001
aF1256.78394
aF1256.8974599999999
aF1256.9692399999999
aF1257.0083
aF1257.06592
aF1258.7959000000001
aF1258.9001499999999
aF1258.96631
aF1258.9665500000001
aF1260.7075199999999
aF1260.9057600000001
aF1261.2285199999999
aF1261.29736
aF1261.29736
aF1261.78955
aF1263.0419899999999
aF1263.0441900000001
aF1263.4152799999999
aF1264.2072800000001
aF1264.61475
aF1265.22705
aF1265.8623
aF1266.5864300000001
aF1266.5959499999999
aF1266.93335
aF1267.33789
aF1267.3501000000001
aF1268.5756799999999
aF1268.5756799999999
aF1269.0646999999999
aF1269.79126
aF1269.9436000000001
aF1269.9436000000001
aF1270.1286600000001
aF1270.4006300000001
aF1270.83716
aF1271.7768599999999
aF1271.82764
aF1273.05933
aF1273.05981
aF1273.47021
aF1275.80493
aF1276.021
aF1276.0224599999999
aF1276.4301800000001
aF1277.7412099999999
aF1277.7438999999999
aF1278.0495599999999
aF1278.0495599999999
aF1278.17749
aF1278.45874
aF1278.4589800000001
aF1279.7048299999999
aF1279.9917
aF1280.6084000000001
aF1282.5568800000001
aF1282.5698199999999
aF1282.9235799999999
aF1282.92383
aF1284.0436999999999
aF1285.1420900000001
aF1285.19409
aF1285.3271500000001
aF1285.3273899999999
aF1286.56567
aF1286.84277
aF1286.84277
aF1287.3898899999999
aF1287.3898899999999
aF1287.4331099999999
aF1287.96387
aF1287.9646
aF1289.2690399999999
aF1289.4082000000001
aF1289.81934
aF1289.8356900000001
aF1289.89185
aF1290.54639
aF1291.16113
aF1292.6389200000001
aF1292.6389200000001
aF1292.86304
aF1292.9262699999999
aF1293.1123
aF1293.2192399999999
aF1294.3813500000001
aF1294.5083
aF1294.5083
aF1295.0949700000001
aF1295.0949700000001
aF1296.5981400000001
aF1296.5981400000001
aF1298.0156199999999
aF1298.0158699999999
aF1299.75854
aF1299.76929
aF1302.2082499999999
aF1302.2082499999999
aF1302.4646
aF1303.2148400000001
aF1303.2148400000001
aF1303.4665500000001
aF1303.4938999999999
aF1303.56494
aF1303.56494
aF1303.7023899999999
aF1304.0056199999999
aF1305.6760300000001
aF1305.6760300000001
aF1307.9018599999999
aF1308.1704099999999
aF1309.5415
aF1309.5436999999999
aF1310.9792500000001
aF1311.2023899999999
aF1311.2023899999999
aF1311.6337900000001
aF1312.49829
aF1312.49829
aF1312.5900899999999
aF1312.6853000000001
aF1313.2622100000001
aF1313.5021999999999
aF1313.92139
aF1314.625
aF1314.625
aF1315.53882
aF1316.3710900000001
aF1316.6870100000001
aF1317.6262200000001
aF1317.62769
aF1317.9531199999999
aF1319.0568800000001
aF1319.1980000000001
aF1319.19849
aF1319.77637
aF1320.91821
aF1321.3088399999999
aF1321.3088399999999
aF1321.8913600000001
aF1322.54907
aF1323.4470200000001
aF1323.66211
aF1323.7150899999999
aF1324.9221199999999
aF1326.7783199999999
aF1327.8637699999999
aF1328.73145
aF1328.7316900000001
aF1329.61499
aF1329.6377
aF1329.99829
aF1329.99829
aF1333.87256
aF1333.88428
aF1335.85742
aF1336.64624
aF1336.6980000000001
aF1337.5114699999999
aF1337.6965299999999
aF1338.1438000000001
aF1338.1438000000001
aF1338.56738
aF1339.57935
aF1340.02197
aF1340.0873999999999
aF1340.1061999999999
aF1340.4082000000001
aF1341.25317
aF1343.9438500000001
aF1343.9465299999999
aF1346.0686000000001
aF1346.48901
aF1346.6340299999999
aF1347.11304
aF1347.4006300000001
aF1347.4362799999999
aF1347.6381799999999
aF1347.8449700000001
aF1348.4775400000001
aF1353.5019500000001
aF1353.8874499999999
aF1353.8879400000001
aF1355.51099
aF1355.66455
aF1356.61157
aF1358.2495100000001
aF1358.3002899999999
aF1358.97534
aF1359.84058
aF1360.6398899999999
aF1362.15308
aF1363.10303
aF1363.7065399999999
aF1364.6010699999999
aF1364.7751499999999
aF1364.9875500000001
aF1366.3879400000001
aF1367.10718
aF1368.3105499999999
aF1368.6796899999999
aF1369.3019999999999
aF1371.54126
aF1372.21533
aF1373.84619
aF1374.7207000000001
aF1376.9064900000001
aF1376.9648400000001
aF1378.97046
aF1380.7021500000001
aF1381.1962900000001
aF1381.22119
aF1381.4372599999999
aF1382.5866699999999
aF1382.98242
aF1387.4558099999999
aF1387.8376499999999
aF1388.8256799999999
aF1389.2453599999999
aF1389.3230000000001
aF1391.53394
aF1391.6311000000001
aF1394.6516099999999
aF1394.9292
aF1395.1171899999999
aF1397.61743
aF1398.5957000000001
aF1398.78052
aF1399.0222200000001
aF1403.2553700000001
aF1403.5993699999999
aF1406.3881799999999
aF1406.3998999999999
aF1406.6726100000001
aF1407.54883
aF1408.2150899999999
aF1409.4248
aF1409.6447800000001
aF1413.7358400000001
aF1413.9040500000001
aF1413.9387200000001
aF1414.34448
aF1415.875
aF1420.3483900000001
aF1421.1398899999999
aF1421.7841800000001
aF1426.2993200000001
aF1426.60132
aF1427.47461
aF1428.5859399999999
aF1428.64941
aF1428.7048299999999
aF1431.9970699999999
aF1432.4143099999999
aF1432.6813999999999
aF1435.6489300000001
aF1435.65112
aF1438.1438000000001
aF1438.5183099999999
aF1438.53394
aF1441.2265600000001
aF1442.5459000000001
aF1443.3662099999999
aF1443.3894
aF1448.35034
aF1449.02612
aF1450.75
aF1450.87598
aF1450.9589800000001
aF1452.72217
aF1457.2019
aF1457.3974599999999
aF1458.17749
aF1458.19019
aF1459.7985799999999
aF1460.0847200000001
aF1460.91479
aF1462.14282
aF1463.0354
aF1463.0424800000001
aF1463.5124499999999
aF1464.7106900000001
aF1464.71118
aF1465.9709499999999
aF1471.1293900000001
aF1472.47534
aF1473.13428
aF1475.68604
aF1477.3129899999999
aF1479.0112300000001
aF1480.5703100000001
aF1480.62329
aF1482.28809
aF1482.37915
aF1487.4152799999999
aF1487.4186999999999
aF1487.4418900000001
aF1487.4448199999999
aF1489.2512200000001
aF1491.1540500000001
aF1493.48486
aF1493.57935
aF1493.5795900000001
aF1495.27856
aF1495.5510300000001
aF1500.11987
aF1502.6989699999999
aF1502.8872100000001
aF1507.2404799999999
aF1510.01611
aF1510.02954
aF1511.63672
aF1513.2876000000001
aF1516.4650899999999
aF1516.46558
aF1522.2573199999999
aF1524.37598
aF1532.3435099999999
aF1539.15454
aF1545.2543900000001
aF1550.74487
aF1554.4887699999999
aF1561.59131
aF1568.0087900000001
aF1573.81348
asg120
(lp1250
I1
aI1
aI1
aI1
aI1
aI1
aI1
aI1
aI1
aI1
aI1
aI1
aI1
aI1
aI1
aI1
aI1
aI1
aI1
aI1
aI1
aI1
aI1
aI1
aI1
aI1
aI1
aI1
aI1
aI1
aI1
aI1
aI1
aI1
aI1
aI1
aI1
aI1
aI1
aI1
aI1
aI1
aI1
aI1
aI1
aI1
aI1
aI1
aI1
aI1
aI1
aI1
aI1
aI1
aI1
aI1
aI1
aI1
aI1
aI1
aI1
aI1
aI1
aI1
aI1
aI1
aI1
aI1
aI1
aI1
aI1
aI1
aI1
aI1
aI1
aI1
aI1
aI1
aI1
aI1
aI1
aI1
aI1
aI1
aI1
aI1
aI1
aI1
aI1
aI1
aI1
aI1
aI1
aI1
aI1
aI1
aI1
aI1
aI1
aI1
aI1
aI1
aI1
aI1
aI1
aI1
aI1
aI1
aI1
aI1
aI1
aI1
aI1
aI1
aI1
aI1
aI1
aI1
aI1
aI1
aI1
aI1
aI1
aI1
aI1
aI1
aI1
aI1
aI1
aI1
aI1
aI1
aI1
aI1
aI1
aI1
aI1
aI1
aI1
aI1
aI1
aI1
aI1
aI1
aI1
aI1
aI1
aI1
aI1
aI1
aI1
aI1
aI1
aI1
aI1
aI1
aI1
aI1
aI1
aI1
aI1
aI1
aI1
aI1
aI1
aI1
aI1
aI1
aI1
aI1
aI1
aI1
aI1
aI1
aI1
aI1
aI1
aI1
aI1
aI1
aI1
aI1
aI1
aI1
aI1
aI1
aI1
aI1
aI1
aI1
aI1
aI1
aI1
aI1
aI1
aI1
aI1
aI1
aI1
aI1
aI1
aI1
aI1
aI1
aI1
aI1
aI1
aI1
aI1
aI1
aI1
aI1
aI1
aI1
aI1
aI1
aI1
aI1
aI1
aI1
aI1
aI1
aI1
aI1
aI1
aI1
aI1
aI1
aI1
aI1
aI1
aI1
aI1
aI1
aI1
aI1
aI1
aI1
aI1
aI1
aI1
aI1
aI1
aI1
aI1
aI1
aI1
aI1
aI1
aI1
aI1
aI1
aI1
aI1
aI1
aI1
aI1
aI1
aI1
aI1
aI1
aI1
aI1
aI1
aI1
aI1
aI1
aI1
aI1
aI1
aI1
aI1
aI1
aI1
aI1
aI1
aI1
aI1
aI1
aI1
aI1
aI1
aI1
aI1
aI1
aI1
aI1
aI1
aI1
aI1
aI1
aI1
aI1
aI1
aI1
aI1
aI1
aI1
aI1
aI1
aI1
aI1
aI1
aI1
aI1
aI1
aI1
aI1
aI1
aI1
aI1
aI1
aI1
aI1
aI1
aI1
aI1
aI1
aI1
aI1
aI1
aI1
aI1
aI1
aI1
aI1
aI1
aI1
aI1
aI1
aI1
aI1
aI1
aI1
aI1
aI1
aI1
aI1
aI1
aI1
aI1
aI1
aI1
aI1
aI1
aI1
aI1
aI1
aI1
aI1
aI1
aI1
aI1
aI1
aI1
aI1
aI1
aI1
aI1
aI1
aI1
aI1
aI1
aI1
aI1
aI1
aI1
aI1
aI1
aI1
aI1
aI1
aI1
aI1
aI1
aI1
aI1
aI1
aI1
aI1
aI1
aI1
aI1
aI1
aI1
aI1
aI1
aI1
aI1
aI1
aI1
aI1
aI1
aI1
aI1
aI1
aI1
aI1
aI1
aI1
aI1
aI1
aI1
aI1
aI1
aI1
aI1
aI1
aI1
aI1
aI1
aI1
aI1
aI1
aI1
aI1
aI1
aI1
aI1
aI1
aI1
aI1
aI1
aI1
aI1
aI1
aI1
aI1
aI1
aI1
aI1
aI1
aI1
aI1
aI1
aI1
aI1
aI1
aI1
aI1
aI1
aI1
aI1
aI1
aI1
aI1
aI1
aI1
aI1
aI1
aI1
aI1
aI1
aI1
aI1
aI1
aI1
aI1
aI1
aI1
aI1
aI1
aI1
aI1
aI1
aI1
aI1
aI1
aI1
aI1
aI1
aI1
aI1
aI1
aI1
aI1
aI1
aI1
aI1
aI1
aI1
aI1
aI1
aI1
aI1
aI1
aI1
aI1
aI1
aI1
aI1
aI1
aI1
aI1
aI1
aI1
aI1
aI1
aI1
aI1
aI1
aI1
aI1
aI1
aI1
aI1
aI1
aI1
aI1
aI1
aI1
aI1
aI1
aI1
aI1
aI1
aI1
aI1
aI1
aI1
aI1
aI1
aI1
aI1
aI1
aI1
aI1
aI1
aI1
aI1
aI1
aI1
aI1
aI1
aI1
aI1
aI1
aI1
aI1
aI1
aI1
aI1
aI1
aI1
aI1
aI1
aI1
aI1
aI1
aI1
aI1
asg134
(lp1251
S' '
aS' '
aS' '
aS' '
aS' '
aS' '
aS' '
aS' '
aS' '
aS' '
aS' '
aS' '
aS' '
aS' '
aS' '
aS' '
aS' '
aS' '
aS' '
aS' '
aS' '
aS' '
aS' '
aS' '
aS' '
aS' '
aS' '
aS' '
aS' '
aS' '
aS' '
aS' '
aS' '
aS' '
aS' '
aS' '
aS' '
aS' '
aS' '
aS' '
aS' '
aS' '
aS' '
aS' '
aS' '
aS' '
aS' '
aS' '
aS' '
aS' '
aS' '
aS' '
aS' '
aS' '
aS' '
aS' '
aS' '
aS' '
aS' '
aS' '
aS' '
aS' '
aS' '
aS' '
aS' '
aS' '
aS' '
aS' '
aS' '
aS' '
aS' '
aS' '
aS' '
aS' '
aS' '
aS' '
aS' '
aS' '
aS' '
aS' '
aS' '
aS' '
aS' '
aS' '
aS' '
aS' '
aS' '
aS' '
aS' '
aS' '
aS' '
aS' '
aS' '
aS' '
aS' '
aS' '
aS' '
aS' '
aS' '
aS' '
aS' '
aS' '
aS' '
aS' '
aS' '
aS' '
aS' '
aS' '
aS' '
aS' '
aS' '
aS' '
aS' '
aS' '
aS' '
aS' '
aS' '
aS' '
aS' '
aS' '
aS' '
aS' '
aS' '
aS' '
aS' '
aS' '
aS' '
aS' '
aS' '
aS' '
aS' '
aS' '
aS' '
aS' '
aS' '
aS' '
aS' '
aS' '
aS' '
aS' '
aS' '
aS' '
aS' '
aS' '
aS' '
aS' '
aS' '
aS' '
aS' '
aS' '
aS' '
aS' '
aS' '
aS' '
aS' '
aS' '
aS' '
aS' '
aS' '
aS' '
aS' '
aS' '
aS' '
aS' '
aS' '
aS' '
aS' '
aS' '
aS' '
aS' '
aS' '
aS' '
aS' '
aS' '
aS' '
aS' '
aS' '
aS' '
aS' '
aS' '
aS' '
aS' '
aS' '
aS' '
aS' '
aS' '
aS' '
aS' '
aS' '
aS' '
aS' '
aS' '
aS' '
aS' '
aS' '
aS' '
aS' '
aS' '
aS' '
aS' '
aS' '
aS' '
aS' '
aS' '
aS' '
aS' '
aS' '
aS' '
aS' '
aS' '
aS' '
aS' '
aS' '
aS' '
aS' '
aS' '
aS' '
aS' '
aS' '
aS' '
aS' '
aS' '
aS' '
aS' '
aS' '
aS' '
aS' '
aS' '
aS' '
aS' '
aS' '
aS' '
aS' '
aS' '
aS' '
aS' '
aS' '
aS' '
aS' '
aS' '
aS' '
aS' '
aS' '
aS' '
aS' '
aS' '
aS' '
aS' '
aS' '
aS' '
aS' '
aS' '
aS' '
aS' '
aS' '
aS' '
aS' '
aS' '
aS' '
aS' '
aS' '
aS' '
aS' '
aS' '
aS' '
aS' '
aS' '
aS' '
aS' '
aS' '
aS' '
aS' '
aS' '
aS' '
aS' '
aS' '
aS' '
aS' '
aS' '
aS' '
aS' '
aS' '
aS' '
aS' '
aS' '
aS' '
aS' '
aS' '
aS' '
aS' '
aS' '
aS' '
aS' '
aS' '
aS' '
aS' '
aS' '
aS' '
aS' '
aS' '
aS' '
aS' '
aS' '
aS' '
aS' '
aS' '
aS' '
aS' '
aS' '
aS' '
aS' '
aS' '
aS' '
aS' '
aS' '
aS' '
aS' '
aS' '
aS' '
aS' '
aS' '
aS' '
aS' '
aS' '
aS' '
aS' '
aS' '
aS' '
aS' '
aS' '
aS' '
aS' '
aS' '
aS' '
aS' '
aS' '
aS' '
aS' '
aS' '
aS' '
aS' '
aS' '
aS' '
aS' '
aS' '
aS' '
aS' '
aS' '
aS' '
aS' '
aS' '
aS' '
aS' '
aS' '
aS' '
aS' '
aS' '
aS' '
aS' '
aS' '
aS' '
aS' '
aS' '
aS' '
aS' '
aS' '
aS' '
aS' '
aS' '
aS' '
aS' '
aS' '
aS' '
aS' '
aS' '
aS' '
aS' '
aS' '
aS' '
aS' '
aS' '
aS' '
aS' '
aS' '
aS' '
aS' '
aS' '
aS' '
aS' '
aS' '
aS' '
aS' '
aS' '
aS' '
aS' '
aS' '
aS' '
aS' '
aS' '
aS' '
aS' '
aS' '
aS' '
aS' '
aS' '
aS' '
aS' '
aS' '
aS' '
aS' '
aS' '
aS' '
aS' '
aS' '
aS' '
aS' '
aS' '
aS' '
aS' '
aS' '
aS' '
aS' '
aS' '
aS' '
aS' '
aS' '
aS' '
aS' '
aS' '
aS' '
aS' '
aS' '
aS' '
aS' '
aS' '
aS' '
aS' '
aS' '
aS' '
aS' '
aS' '
aS' '
aS' '
aS' '
aS' '
aS' '
aS' '
aS' '
aS' '
aS' '
aS' '
aS' '
aS' '
aS' '
aS' '
aS' '
aS' '
aS' '
aS' '
aS' '
aS' '
aS' '
aS' '
aS' '
aS' '
aS' '
aS' '
aS' '
aS' '
aS' '
aS' '
aS' '
aS' '
aS' '
aS' '
aS' '
aS' '
aS' '
aS' '
aS' '
aS' '
aS' '
aS' '
aS' '
aS' '
aS' '
aS' '
aS' '
aS' '
aS' '
aS' '
aS' '
aS' '
aS' '
aS' '
aS' '
aS' '
aS' '
aS' '
aS' '
aS' '
aS' '
aS' '
aS' '
aS' '
aS' '
aS' '
aS' '
aS' '
aS' '
aS' '
aS' '
aS' '
aS' '
aS' '
aS' '
aS' '
aS' '
aS' '
aS' '
aS' '
aS' '
aS' '
aS' '
aS' '
aS' '
aS' '
aS' '
aS' '
aS' '
aS' '
aS' '
aS' '
aS' '
aS' '
aS' '
aS' '
aS' '
aS' '
aS' '
aS' '
aS' '
aS' '
aS' '
aS' '
aS' '
aS' '
aS' '
aS' '
aS' '
aS' '
asg132
(lp1252
S'342203'
p1253
aS'342203'
p1254
aS'342203'
p1255
aS'342203'
p1256
aS'342203'
p1257
aS'342203'
p1258
aS'342203'
p1259
aS'342203'
p1260
aS'342203'
p1261
aS'342203'
p1262
aS'342203'
p1263
aS'342203'
p1264
aS'342203'
p1265
aS'342203'
p1266
aS'342203'
p1267
aS'342203'
p1268
aS'342203'
p1269
aS'342203'
p1270
aS'342203'
p1271
aS'342203'
p1272
aS'342203'
p1273
aS'342203'
p1274
aS'342203'
p1275
aS'342203'
p1276
aS'342203'
p1277
aS'342203'
p1278
aS'342203'
p1279
aS'342203'
p1280
aS'342203'
p1281
aS'342203'
p1282
aS'342203'
p1283
aS'342203'
p1284
aS'342203'
p1285
aS'342203'
p1286
aS'342203'
p1287
aS'342203'
p1288
aS'342203'
p1289
aS'342203'
p1290
aS'342203'
p1291
aS'342203'
p1292
aS'342203'
p1293
aS'346203'
p1294
aS'342203'
p1295
aS'342203'
p1296
aS'346203'
p1297
aS'346203'
p1298
aS'342203'
p1299
aS'342203'
p1300
aS'342203'
p1301
aS'346203'
p1302
aS'346203'
p1303
aS'342203'
p1304
aS'342203'
p1305
aS'342203'
p1306
aS'346203'
p1307
aS'342203'
p1308
aS'342203'
p1309
aS'346203'
p1310
aS'346203'
p1311
aS'342203'
p1312
aS'342203'
p1313
aS'342203'
p1314
aS'346203'
p1315
aS'342203'
p1316
aS'342203'
p1317
aS'342203'
p1318
aS'342203'
p1319
aS'342203'
p1320
aS'346203'
p1321
aS'342203'
p1322
aS'342203'
p1323
aS'342203'
p1324
aS'342203'
p1325
aS'342203'
p1326
aS'342203'
p1327
aS'342203'
p1328
aS'342203'
p1329
aS'342203'
p1330
aS'342203'
p1331
aS'342203'
p1332
aS'346203'
p1333
aS'342203'
p1334
aS'346203'
p1335
aS'346203'
p1336
aS'342203'
p1337
aS'342203'
p1338
aS'342203'
p1339
aS'342203'
p1340
aS'342203'
p1341
aS'342203'
p1342
aS'342203'
p1343
aS'342203'
p1344
aS'342203'
p1345
aS'342203'
p1346
aS'342203'
p1347
aS'342203'
p1348
aS'342203'
p1349
aS'342203'
p1350
aS'342203'
p1351
aS'342203'
p1352
aS'342203'
p1353
aS'342503'
p1354
aS'342203'
p1355
aS'342203'
p1356
aS'342203'
p1357
aS'342203'
p1358
aS'342203'
p1359
aS'342503'
p1360
aS'345503'
p1361
aS'345503'
p1362
aS'345503'
p1363
aS'345503'
p1364
aS'345503'
p1365
aS'342203'
p1366
aS'342203'
p1367
aS'342203'
p1368
aS'342203'
p1369
aS'345503'
p1370
aS'345503'
p1371
aS'342503'
p1372
aS'342203'
p1373
aS'342203'
p1374
aS'345503'
p1375
aS'342203'
p1376
aS'342203'
p1377
aS'342203'
p1378
aS'342503'
p1379
aS'342203'
p1380
aS'342203'
p1381
aS'345503'
p1382
aS'342203'
p1383
aS'345503'
p1384
aS'342203'
p1385
aS'342503'
p1386
aS'342203'
p1387
aS'342203'
p1388
aS'342203'
p1389
aS'342203'
p1390
aS'342203'
p1391
aS'342503'
p1392
aS'342503'
p1393
aS'342503'
p1394
aS'342203'
p1395
aS'342203'
p1396
aS'342203'
p1397
aS'342203'
p1398
aS'342203'
p1399
aS'342203'
p1400
aS'345503'
p1401
aS'342203'
p1402
aS'342203'
p1403
aS'342203'
p1404
aS'342203'
p1405
aS'342203'
p1406
aS'342203'
p1407
aS'342203'
p1408
aS'342203'
p1409
aS'345203'
p1410
aS'342203'
p1411
aS'342203'
p1412
aS'342203'
p1413
aS'342203'
p1414
aS'342203'
p1415
aS'342203'
p1416
aS'342203'
p1417
aS'342203'
p1418
aS'342203'
p1419
aS'342203'
p1420
aS'342203'
p1421
aS'342203'
p1422
aS'342503'
p1423
aS'342203'
p1424
aS'342203'
p1425
aS'342203'
p1426
aS'342203'
p1427
aS'342203'
p1428
aS'342203'
p1429
aS'342203'
p1430
aS'342203'
p1431
aS'342203'
p1432
aS'342203'
p1433
aS'342203'
p1434
aS'342203'
p1435
aS'342203'
p1436
aS'342203'
p1437
aS'342203'
p1438
aS'342203'
p1439
aS'342203'
p1440
aS'342203'
p1441
aS'342203'
p1442
aS'342203'
p1443
aS'342203'
p1444
aS'342203'
p1445
aS'342203'
p1446
aS'342203'
p1447
aS'342203'
p1448
aS'342203'
p1449
aS'342203'
p1450
aS'342203'
p1451
aS'342203'
p1452
aS'342203'
p1453
aS'342203'
p1454
aS'342203'
p1455
aS'342203'
p1456
aS'342203'
p1457
aS'342203'
p1458
aS'342203'
p1459
aS'342203'
p1460
aS'342203'
p1461
aS'342203'
p1462
aS'342203'
p1463
aS'342203'
p1464
aS'342203'
p1465
aS'342203'
p1466
aS'342203'
p1467
aS'342203'
p1468
aS'342203'
p1469
aS'346203'
p1470
aS'346203'
p1471
aS'342203'
p1472
aS'346203'
p1473
aS'342203'
p1474
aS'342203'
p1475
aS'342203'
p1476
aS'342203'
p1477
aS'342203'
p1478
aS'342203'
p1479
aS'342203'
p1480
aS'342203'
p1481
aS'342203'
p1482
aS'342203'
p1483
aS'342203'
p1484
aS'342203'
p1485
aS'342203'
p1486
aS'342203'
p1487
aS'342203'
p1488
aS'342203'
p1489
aS'342203'
p1490
aS'342203'
p1491
aS'342203'
p1492
aS'342203'
p1493
aS'346203'
p1494
aS'346203'
p1495
aS'346203'
p1496
aS'342203'
p1497
aS'342203'
p1498
aS'342203'
p1499
aS'342203'
p1500
aS'342203'
p1501
aS'342203'
p1502
aS'346203'
p1503
aS'342203'
p1504
aS'342203'
p1505
aS'342203'
p1506
aS'342203'
p1507
aS'342203'
p1508
aS'342203'
p1509
aS'342203'
p1510
aS'342203'
p1511
aS'342203'
p1512
aS'342203'
p1513
aS'342203'
p1514
aS'342203'
p1515
aS'342203'
p1516
aS'346203'
p1517
aS'346203'
p1518
aS'342203'
p1519
aS'342203'
p1520
aS'342203'
p1521
aS'346203'
p1522
aS'342203'
p1523
aS'342203'
p1524
aS'342203'
p1525
aS'342203'
p1526
aS'342203'
p1527
aS'342203'
p1528
aS'342203'
p1529
aS'342203'
p1530
aS'346203'
p1531
aS'342203'
p1532
aS'342203'
p1533
aS'342203'
p1534
aS'342203'
p1535
aS'342203'
p1536
aS'342203'
p1537
aS'342203'
p1538
aS'342203'
p1539
aS'342203'
p1540
aS'342203'
p1541
aS'342203'
p1542
aS'346203'
p1543
aS'342203'
p1544
aS'346203'
p1545
aS'342203'
p1546
aS'342203'
p1547
aS'342203'
p1548
aS'342203'
p1549
aS'342203'
p1550
aS'342203'
p1551
aS'342203'
p1552
aS'342203'
p1553
aS'346203'
p1554
aS'346203'
p1555
aS'342203'
p1556
aS'342203'
p1557
aS'342203'
p1558
aS'342203'
p1559
aS'342203'
p1560
aS'342203'
p1561
aS'342203'
p1562
aS'342603'
p1563
aS'342203'
p1564
aS'346203'
p1565
aS'346203'
p1566
aS'346203'
p1567
aS'346203'
p1568
aS'342203'
p1569
aS'342203'
p1570
aS'342203'
p1571
aS'342203'
p1572
aS'346203'
p1573
aS'346203'
p1574
aS'342203'
p1575
aS'342203'
p1576
aS'342203'
p1577
aS'342203'
p1578
aS'342203'
p1579
aS'342203'
p1580
aS'342203'
p1581
aS'342203'
p1582
aS'342203'
p1583
aS'346203'
p1584
aS'346203'
p1585
aS'342203'
p1586
aS'342203'
p1587
aS'342203'
p1588
aS'342203'
p1589
aS'342203'
p1590
aS'342203'
p1591
aS'342203'
p1592
aS'342203'
p1593
aS'342203'
p1594
aS'342203'
p1595
aS'342203'
p1596
aS'342203'
p1597
aS'342203'
p1598
aS'342203'
p1599
aS'346203'
p1600
aS'342203'
p1601
aS'342203'
p1602
aS'342203'
p1603
aS'342203'
p1604
aS'342203'
p1605
aS'342203'
p1606
aS'342203'
p1607
aS'342203'
p1608
aS'342203'
p1609
aS'342203'
p1610
aS'342203'
p1611
aS'342203'
p1612
aS'342203'
p1613
aS'342203'
p1614
aS'342203'
p1615
aS'342203'
p1616
aS'342203'
p1617
aS'342203'
p1618
aS'346203'
p1619
aS'342203'
p1620
aS'342203'
p1621
aS'342203'
p1622
aS'342203'
p1623
aS'342203'
p1624
aS'342203'
p1625
aS'342203'
p1626
aS'342203'
p1627
aS'342203'
p1628
aS'342203'
p1629
aS'342203'
p1630
aS'342203'
p1631
aS'342203'
p1632
aS'342203'
p1633
aS'342203'
p1634
aS'342203'
p1635
aS'342203'
p1636
aS'342203'
p1637
aS'342203'
p1638
aS'342203'
p1639
aS'342203'
p1640
aS'342203'
p1641
aS'342203'
p1642
aS'342203'
p1643
aS'342203'
p1644
aS'342203'
p1645
aS'342203'
p1646
aS'342203'
p1647
aS'342203'
p1648
aS'342203'
p1649
aS'342203'
p1650
aS'342203'
p1651
aS'342203'
p1652
aS'342203'
p1653
aS'342203'
p1654
aS'342203'
p1655
aS'342203'
p1656
aS'342203'
p1657
aS'342203'
p1658
aS'342203'
p1659
aS'342203'
p1660
aS'342203'
p1661
aS'342203'
p1662
aS'342203'
p1663
aS'342203'
p1664
aS'342203'
p1665
aS'342203'
p1666
aS'342203'
p1667
aS'342203'
p1668
aS'342203'
p1669
aS'342203'
p1670
aS'342203'
p1671
aS'342203'
p1672
aS'342203'
p1673
aS'342203'
p1674
aS'342203'
p1675
aS'342203'
p1676
aS'342203'
p1677
aS'342203'
p1678
aS'342203'
p1679
aS'342203'
p1680
aS'342203'
p1681
aS'342203'
p1682
aS'342203'
p1683
aS'342203'
p1684
aS'342203'
p1685
aS'342203'
p1686
aS'342203'
p1687
aS'342203'
p1688
aS'342203'
p1689
aS'342203'
p1690
aS'342203'
p1691
aS'342203'
p1692
aS'342203'
p1693
aS'342203'
p1694
aS'342203'
p1695
aS'342203'
p1696
aS'342203'
p1697
aS'342203'
p1698
aS'342203'
p1699
aS'342203'
p1700
aS'342203'
p1701
aS'342203'
p1702
aS'342203'
p1703
aS'342203'
p1704
aS'342203'
p1705
aS'342203'
p1706
aS'342203'
p1707
aS'342203'
p1708
aS'342203'
p1709
aS'342203'
p1710
aS'342203'
p1711
aS'342203'
p1712
aS'342203'
p1713
aS'342203'
p1714
aS'342203'
p1715
aS'342203'
p1716
aS'342203'
p1717
aS'342203'
p1718
aS'342203'
p1719
aS'342203'
p1720
aS'342203'
p1721
aS'342203'
p1722
aS'342203'
p1723
aS'342203'
p1724
aS'342203'
p1725
aS'342203'
p1726
aS'342203'
p1727
aS'342203'
p1728
aS'342203'
p1729
aS'342203'
p1730
aS'342203'
p1731
aS'342203'
p1732
aS'342203'
p1733
aS'342203'
p1734
aS'342203'
p1735
aS'342203'
p1736
aS'342203'
p1737
aS'342203'
p1738
aS'342203'
p1739
aS'342203'
p1740
aS'342203'
p1741
aS'342203'
p1742
aS'342203'
p1743
aS'342203'
p1744
aS'342203'
p1745
aS'342203'
p1746
aS'342203'
p1747
aS'342203'
p1748
aS'342203'
p1749
aS'342203'
p1750
aS'342203'
p1751
aS'342203'
p1752
aS'342203'
p1753
aS'342203'
p1754
aS'342203'
p1755
aS'342203'
p1756
aS'342203'
p1757
aS'342203'
p1758
aS'342203'
p1759
aS'342203'
p1760
aS'342203'
p1761
aS'342203'
p1762
aS'342203'
p1763
aS'342203'
p1764
aS'342203'
p1765
aS'342203'
p1766
aS'342203'
p1767
aS'342203'
p1768
aS'342203'
p1769
aS'342203'
p1770
aS'342203'
p1771
aS'342203'
p1772
aS'342203'
p1773
aS'342203'
p1774
aS'342203'
p1775
aS'342203'
p1776
aS'342203'
p1777
aS'342203'
p1778
aS'342203'
p1779
aS'342203'
p1780
aS'342203'
p1781
aS'342203'
p1782
aS'342203'
p1783
aS'342203'
p1784
aS'342203'
p1785
aS'342203'
p1786
aS'342203'
p1787
aS'342203'
p1788
aS'342203'
p1789
aS'342203'
p1790
aS'342203'
p1791
aS'342203'
p1792
aS'342203'
p1793
aS'342203'
p1794
aS'342203'
p1795
aS'342203'
p1796
aS'342203'
p1797
aS'342203'
p1798
aS'342203'
p1799
aS'342203'
p1800
aS'342203'
p1801
aS'342203'
p1802
aS'342203'
p1803
asg127
(lp1804
F-0.002
aF-0.002
aF-0.002
aF-0.002
aF-0.002
aF-0.002
aF-0.002
aF-0.002
aF-0.002
aF-0.002
aF-0.002
aF-0.002
aF-0.002
aF-0.002
aF-0.002
aF-0.002
aF-0.002
aF-0.002
aF-0.002
aF-0.002
aF-0.002
aF-0.002
aF-0.002
aF-0.002
aF-0.002
aF-0.002
aF-0.002
aF-0.002
aF-0.002
aF-0.002
aF-0.002
aF-0.002
aF-0.002
aF-0.002
aF-0.002
aF-0.002
aF-0.002
aF-0.002
aF-0.002
aF-0.002
aF-0.002
aF-0.002
aF-0.002
aF-0.002
aF-0.002
aF-0.002
aF-0.002
aF-0.002
aF-0.002
aF-0.002
aF-0.002
aF-0.002
aF-0.002
aF-0.002
aF-0.002
aF-0.002
aF-0.002
aF-0.002
aF-0.002
aF-0.002
aF-0.002
aF-0.002
aF-0.002
aF-0.002
aF-0.002
aF-0.002
aF-0.002
aF-0.002
aF-0.002
aF-0.002
aF-0.002
aF-0.002
aF-0.002
aF-0.002
aF-0.002
aF-0.002
aF-0.002
aF-0.002
aF-0.002
aF-0.002
aF-0.002
aF-0.002
aF-0.002
aF-0.002
aF-0.002
aF-0.002
aF-0.002
aF-0.002
aF-0.002
aF-0.002
aF-0.002
aF-0.002
aF-0.002
aF-0.002
aF-0.002
aF-0.002
aF-0.002
aF-0.002
aF-0.002
aF-0.002
aF-0.002
aF-0.002
aF-0.002
aF-0.002
aF-0.002
aF-0.002
aF-0.002
aF-0.002
aF-0.002
aF-0.002
aF-0.002
aF-0.002
aF-0.002
aF-0.002
aF-0.002
aF-0.002
aF-0.002
aF-0.002
aF-0.002
aF-0.002
aF-0.002
aF-0.002
aF-0.002
aF-0.002
aF-0.002
aF-0.002
aF-0.002
aF-0.002
aF-0.002
aF-0.002
aF-0.002
aF-0.002
aF-0.002
aF-0.002
aF-0.002
aF-0.002
aF-0.002
aF-0.002
aF-0.002
aF-0.002
aF-0.002
aF-0.002
aF-0.002
aF-0.002
aF-0.002
aF-0.002
aF-0.002
aF-0.002
aF-0.002
aF-0.002
aF-0.002
aF-0.002
aF-0.002
aF-0.002
aF-0.002
aF-0.002
aF-0.002
aF-0.002
aF-0.002
aF-0.002
aF-0.002
aF-0.002
aF-0.002
aF-0.002
aF-0.002
aF-0.002
aF-0.002
aF-0.002
aF-0.002
aF-0.002
aF-0.002
aF-0.002
aF-0.002
aF-0.002
aF-0.002
aF-0.002
aF-0.002
aF-0.002
aF-0.002
aF-0.002
aF-0.002
aF-0.002
aF-0.002
aF-0.002
aF-0.002
aF-0.002
aF-0.002
aF-0.002
aF-0.002
aF-0.002
aF-0.002
aF-0.002
aF-0.002
aF-0.002
aF-0.002
aF-0.002
aF-0.002
aF-0.002
aF-0.002
aF-0.002
aF-0.002
aF-0.002
aF-0.002
aF-0.002
aF-0.002
aF-0.002
aF-0.002
aF-0.002
aF-0.002
aF-0.002
aF-0.002
aF-0.002
aF-0.002
aF-0.002
aF-0.002
aF-0.002
aF-0.002
aF-0.002
aF-0.002
aF-0.002
aF-0.002
aF-0.002
aF-0.002
aF-0.002
aF-0.002
aF-0.002
aF-0.002
aF-0.002
aF-0.002
aF-0.002
aF-0.002
aF-0.002
aF-0.002
aF-0.002
aF-0.002
aF-0.002
aF-0.002
aF-0.002
aF-0.002
aF-0.002
aF-0.002
aF-0.002
aF-0.002
aF-0.002
aF-0.002
aF-0.002
aF-0.002
aF-0.002
aF-0.002
aF-0.002
aF-0.002
aF-0.002
aF-0.002
aF-0.002
aF-0.002
aF-0.002
aF-0.002
aF-0.002
aF-0.002
aF-0.002
aF-0.002
aF-0.002
aF-0.002
aF-0.002
aF-0.002
aF-0.002
aF-0.002
aF-0.002
aF-0.002
aF-0.002
aF-0.002
aF-0.002
aF-0.002
aF-0.002
aF-0.002
aF-0.002
aF-0.002
aF-0.002
aF-0.002
aF-0.002
aF-0.002
aF-0.002
aF-0.002
aF-0.002
aF-0.002
aF-0.002
aF-0.002
aF-0.002
aF-0.002
aF-0.002
aF-0.002
aF-0.002
aF-0.002
aF-0.002
aF-0.002
aF-0.002
aF-0.002
aF-0.002
aF-0.002
aF-0.002
aF-0.002
aF-0.002
aF-0.002
aF-0.002
aF-0.002
aF-0.002
aF-0.002
aF-0.002
aF-0.002
aF-0.002
aF-0.002
aF-0.002
aF-0.002
aF-0.002
aF-0.002
aF-0.002
aF-0.002
aF-0.002
aF-0.002
aF-0.002
aF-0.002
aF-0.002
aF-0.002
aF-0.002
aF-0.002
aF-0.002
aF-0.002
aF-0.002
aF-0.002
aF-0.002
aF-0.002
aF-0.002
aF-0.002
aF-0.002
aF-0.002
aF-0.002
aF-0.002
aF-0.002
aF-0.002
aF-0.002
aF-0.002
aF-0.002
aF-0.002
aF-0.002
aF-0.002
aF-0.002
aF-0.002
aF-0.002
aF-0.002
aF-0.002
aF-0.002
aF-0.002
aF-0.002
aF-0.002
aF-0.002
aF-0.002
aF-0.002
aF-0.002
aF-0.002
aF-0.002
aF-0.002
aF-0.002
aF-0.002
aF-0.002
aF-0.002
aF-0.002
aF-0.002
aF-0.002
aF-0.002
aF-0.002
aF-0.002
aF-0.002
aF-0.002
aF-0.002
aF-0.002
aF-0.002
aF-0.002
aF-0.002
aF-0.002
aF-0.002
aF-0.002
aF-0.002
aF-0.002
aF-0.002
aF-0.002
aF-0.002
aF-0.002
aF-0.002
aF-0.002
aF-0.002
aF-0.002
aF-0.002
aF-0.002
aF-0.002
aF-0.002
aF-0.002
aF-0.002
aF-0.002
aF-0.002
aF-0.002
aF-0.002
aF-0.002
aF-0.002
aF-0.002
aF-0.002
aF-0.002
aF-0.002
aF-0.002
aF-0.002
aF-0.002
aF-0.002
aF-0.002
aF-0.002
aF-0.002
aF-0.002
aF-0.002
aF-0.002
aF-0.002
aF-0.002
aF-0.002
aF-0.002
aF-0.002
aF-0.002
aF-0.002
aF-0.002
aF-0.002
aF-0.002
aF-0.002
aF-0.002
aF-0.002
aF-0.002
aF-0.002
aF-0.002
aF-0.002
aF-0.002
aF-0.002
aF-0.002
aF-0.002
aF-0.002
aF-0.002
aF-0.002
aF-0.002
aF-0.002
aF-0.002
aF-0.002
aF-0.002
aF-0.002
aF-0.002
aF-0.002
aF-0.002
aF-0.002
aF-0.002
aF-0.002
aF-0.002
aF-0.002
aF-0.002
aF-0.002
aF-0.002
aF-0.002
aF-0.002
aF-0.002
aF-0.002
aF-0.002
aF-0.002
aF-0.002
aF-0.002
aF-0.002
aF-0.002
aF-0.002
aF-0.002
aF-0.002
aF-0.002
aF-0.002
aF-0.002
aF-0.002
aF-0.002
aF-0.002
aF-0.002
aF-0.002
aF-0.002
aF-0.002
aF-0.002
aF-0.002
aF-0.002
aF-0.002
aF-0.002
aF-0.002
aF-0.002
aF-0.002
aF-0.002
aF-0.002
aF-0.002
aF-0.002
aF-0.002
aF-0.002
aF-0.002
aF-0.002
aF-0.002
aF-0.002
aF-0.002
aF-0.002
aF-0.002
aF-0.002
aF-0.002
aF-0.002
aF-0.002
aF-0.002
aF-0.002
aF-0.002
aF-0.002
aF-0.002
aF-0.002
aF-0.002
aF-0.002
aF-0.002
aF-0.002
aF-0.002
aF-0.002
aF-0.002
aF-0.002
aF-0.002
aF-0.002
aF-0.002
aF-0.002
aF-0.002
aF-0.002
aF-0.002
aF-0.002
aF-0.002
aF-0.002
aF-0.002
aF-0.002
aF-0.002
aF-0.002
aF-0.002
aF-0.002
aF-0.002
aF-0.002
aF-0.002
aF-0.002
aF-0.002
aF-0.002
aF-0.002
aF-0.002
aF-0.002
aF-0.002
aF-0.002
aF-0.002
aF-0.002
aF-0.002
aF-0.002
asg130
(lp1805
S'  7  2  5      '
p1806
aS'  7  3  4      '
p1807
aS'  8  5  4      '
p1808
aS'  6  2  5      '
p1809
aS'  9  9  0      '
p1810
aS'  9  8  1      '
p1811
aS'  8  6  3      '
p1812
aS'  8  7  2      '
p1813
aS'  8  8  1      '
p1814
aS'  6  3  4      '
p1815
aS' 14  1 14      '
p1816
aS'  5  1  4      '
p1817
aS' 13  0 13      '
p1818
aS'  7  7  1      '
p1819
aS'  7  7  0      '
p1820
aS'  7  6  1      '
p1821
aS'  6  4  3      '
p1822
aS' 12  2 11      '
p1823
aS' 12  1 12      '
p1824
aS' 12  0 12      '
p1825
aS'  6  5  2      '
p1826
aS'  6  6  1      '
p1827
aS'  6  6  0      '
p1828
aS' 11  1 10      '
p1829
aS' 11  0 11      '
p1830
aS' 11  1 11      '
p1831
aS' 10  1  9      '
p1832
aS' 10  2  9      '
p1833
aS' 10  0 10      '
p1834
aS' 10  1 10      '
p1835
aS'  5  5  0      '
p1836
aS'  9  2  7      '
p1837
aS' 11  0 11      '
p1838
aS'  9  1  8      '
p1839
aS'  9  2  8      '
p1840
aS'  9  1  9      '
p1841
aS'  9  0  9      '
p1842
aS'  8  3  6      '
p1843
aS'  8  1  7      '
p1844
aS'  8  2  7      '
p1845
aS' 10  1 10      '
p1846
aS'  7  2  5      '
p1847
aS'  8  1  8      '
p1848
aS'  8  0  8      '
p1849
aS'  7  1  6      '
p1850
aS'  7  2  6      '
p1851
aS'  9  0  9      '
p1852
aS'  6  2  4      '
p1853
aS'  6  3  4      '
p1854
aS'  7  1  7      '
p1855
aS'  7  0  7      '
p1856
aS' 10  2  9      '
p1857
aS'  6  1  5      '
p1858
aS'  6  2  5      '
p1859
aS'  5  2  3      '
p1860
aS'  5  3  3      '
p1861
aS'  8  1  8      '
p1862
aS'  6  0  6      '
p1863
aS'  6  1  6      '
p1864
aS'  4  2  2      '
p1865
aS'  5  1  4      '
p1866
aS'  5  2  4      '
p1867
aS'  4  3  2      '
p1868
aS'  3  2  1      '
p1869
aS'  4  4  1      '
p1870
aS'  5  0  5      '
p1871
aS'  5  1  5      '
p1872
aS'  2  2  1      '
p1873
aS'  4  1  3      '
p1874
aS'  4  2  3      '
p1875
aS'  2  2  0      '
p1876
aS'  4  0  4      '
p1877
aS'  4  1  4      '
p1878
aS'  3  1  2      '
p1879
aS'  3  3  1      '
p1880
aS'  3  2  2      '
p1881
aS'  2  1  1      '
p1882
aS'  1  1  1      '
p1883
aS'  3  0  3      '
p1884
aS'  3  1  3      '
p1885
aS'  2  2  1      '
p1886
aS'  1  1  0      '
p1887
aS'  2  0  2      '
p1888
aS'  2  1  2      '
p1889
aS'  5  1  4      '
p1890
aS'  3  1  3      '
p1891
aS'  1  0  1      '
p1892
aS'  3  0  3      '
p1893
aS'  4  2  3      '
p1894
aS'  1  1  1      '
p1895
aS'  6  4  3      '
p1896
aS'  7  3  4      '
p1897
aS'  4  1  3      '
p1898
aS'  4  3  2      '
p1899
aS'  3  2  2      '
p1900
aS'  2  1  2      '
p1901
aS'  5  2  3      '
p1902
aS'  0  0  0      '
p1903
aS'  2  0  2      '
p1904
aS'  5  4  1      '
p1905
aS'  6  3  3      '
p1906
aS'  3  1  2      '
p1907
aS'  4  3  1      '
p1908
aS'  7  5  2      '
p1909
aS'  4  2  2      '
p1910
aS'  6  4  2      '
p1911
aS'  7  4  3      '
p1912
aS'  5  3  2      '
p1913
aS'  3  2  1      '
p1914
aS'  2  1  1      '
p1915
aS'  1  0  1      '
p1916
aS'  1  1  0      '
p1917
aS'  2  2  0      '
p1918
aS'  3  3  0      '
p1919
aS'  2  1  1      '
p1920
aS'  3  2  1      '
p1921
aS'  1  1  1      '
p1922
aS'  4  3  1      '
p1923
aS'  2  2  1      '
p1924
aS'  4  4  0      '
p1925
aS'  5  4  1      '
p1926
aS'  3  3  1      '
p1927
aS'  2  0  2      '
p1928
aS'  2  1  2      '
p1929
aS'  3  1  2      '
p1930
aS'  4  2  2      '
p1931
aS'  5  3  2      '
p1932
aS'  3  2  2      '
p1933
aS'  6  5  1      '
p1934
aS'  4  4  1      '
p1935
aS'  6  4  2      '
p1936
aS'  5  5  0      '
p1937
aS'  4  3  2      '
p1938
aS'  7  5  2      '
p1939
aS'  3  0  3      '
p1940
aS'  3  1  3      '
p1941
aS'  5  4  2      '
p1942
aS'  5  5  1      '
p1943
aS'  7  6  1      '
p1944
aS'  8  6  2      '
p1945
aS'  4  1  3      '
p1946
aS'  4  2  3      '
p1947
aS'  2  2  1      '
p1948
aS'  6  6  0      '
p1949
aS'  5  2  3      '
p1950
aS'  6  5  2      '
p1951
aS'  5  3  3      '
p1952
aS'  6  3  3      '
p1953
aS'  7  4  3      '
p1954
aS'  8  5  3      '
p1955
aS'  3  1  2      '
p1956
aS'  6  6  1      '
p1957
aS'  6  4  3      '
p1958
aS'  4  0  4      '
p1959
aS'  4  1  4      '
p1960
aS'  9  6  3      '
p1961
aS'  9  7  2      '
p1962
aS'  2  2  0      '
p1963
aS'  8  7  1      '
p1964
aS'  7  6  2      '
p1965
aS'  5  1  4      '
p1966
aS'  5  2  4      '
p1967
aS'  7  5  3      '
p1968
aS'  3  2  2      '
p1969
aS' 10  7  3      '
p1970
aS'  7  7  0      '
p1971
aS'  6  2  4      '
p1972
aS'  3  3  0      '
p1973
aS'  6  3  4      '
p1974
aS'  7  7  1      '
p1975
aS'  7  3  4      '
p1976
aS'  5  0  5      '
p1977
aS'  5  1  5      '
p1978
aS'  8  6  3      '
p1979
aS'  7  4  4      '
p1980
aS'  8  7  2      '
p1981
aS' 10  8  2      '
p1982
aS'  8  4  4      '
p1983
aS'  4  1  3      '
p1984
aS' 11  8  3      '
p1985
aS'  9  5  4      '
p1986
aS'  4  2  3      '
p1987
aS'  8  5  4      '
p1988
aS'  9  8  1      '
p1989
aS' 10  6  4      '
p1990
aS'  6  1  5      '
p1991
aS'  6  2  5      '
p1992
aS'  8  8  0      '
p1993
aS' 11  7  4      '
p1994
aS'  9  7  3      '
p1995
aS'  8  8  1      '
p1996
aS'  4  2  2      '
p1997
aS'  7  2  5      '
p1998
aS'  7  3  5      '
p1999
aS'  3  3  1      '
p2000
aS'  9  6  4      '
p2001
aS'  6  0  6      '
p2002
aS'  6  1  6      '
p2003
aS'  9  8  2      '
p2004
aS'  5  5  0      '
p2005
aS'  8  3  5      '
p2006
aS'  8  4  5      '
p2007
aS'  5  1  4      '
p2008
aS'  5  2  4      '
p2009
aS'  3  3  0      '
p2010
aS' 11  9  2      '
p2011
aS' 10  8  3      '
p2012
aS' 10  7  4      '
p2013
aS'  9  4  5      '
p2014
aS'  7  1  6      '
p2015
aS'  7  2  6      '
p2016
aS'  9  9  0      '
p2017
aS'  9  5  5      '
p2018
aS'  9  9  1      '
p2019
aS' 10  5  5      '
p2020
aS'  7  0  7      '
p2021
aS'  7  1  7      '
p2022
aS'  8  2  6      '
p2023
aS'  8  3  6      '
p2024
aS' 10  9  2      '
p2025
aS'  4  3  2      '
p2026
aS' 10  6  5      '
p2027
aS'  3  2  1      '
p2028
aS' 11  6  5      '
p2029
aS'  9  3  6      '
p2030
aS'  5  3  2      '
p2031
aS'  9  4  6      '
p2032
aS'  5  2  3      '
p2033
aS'  5  4  1      '
p2034
aS'  6  1  5      '
p2035
aS'  6  2  5      '
p2036
aS' 11  7  5      '
p2037
aS' 10 10  1      '
p2038
aS'  8  1  7      '
p2039
aS'  8  2  7      '
p2040
aS' 10  4  6      '
p2041
aS' 10  5  6      '
p2042
aS' 11 10  1      '
p2043
aS'  8  1  8      '
p2044
aS'  8  0  8      '
p2045
aS'  5  3  3      '
p2046
aS'  9  2  7      '
p2047
aS'  9  3  7      '
p2048
aS'  3  3  1      '
p2049
aS' 12  8  5      '
p2050
aS' 11  5  6      '
p2051
aS' 11  6  6      '
p2052
aS'  7  6  1      '
p2053
aS'  7  1  6      '
p2054
aS'  7  2  6      '
p2055
aS'  4  4  1      '
p2056
aS' 10  3  7      '
p2057
aS' 10  4  7      '
p2058
aS'  9  1  8      '
p2059
aS'  9  2  8      '
p2060
aS'  6  2  4      '
p2061
aS' 12  7  6      '
p2062
aS'  9  1  9      '
p2063
aS'  9  0  9      '
p2064
aS'  4  4  0      '
p2065
aS'  6  3  4      '
p2066
aS'  6  4  2      '
p2067
aS' 11  4  7      '
p2068
aS' 11  5  7      '
p2069
aS' 10  2  8      '
p2070
aS' 10  3  8      '
p2071
aS'  4  3  1      '
p2072
aS'  6  3  3      '
p2073
aS'  8  1  7      '
p2074
aS'  8  2  7      '
p2075
aS' 12  6  7      '
p2076
aS' 11  3  8      '
p2077
aS' 11  4  8      '
p2078
aS' 10  2  9      '
p2079
aS' 10  1  9      '
p2080
aS'  5  4  2      '
p2081
aS' 10  0 10      '
p2082
aS' 10  1 10      '
p2083
aS'  7  2  5      '
p2084
aS'  7  3  5      '
p2085
aS' 13  6  7      '
p2086
aS' 12  4  8      '
p2087
aS' 12  5  8      '
p2088
aS' 11  2  9      '
p2089
aS' 11  3  9      '
p2090
aS'  7  5  2      '
p2091
aS'  7  5  2      '
p2092
aS'  4  2  2      '
p2093
aS'  9  1  8      '
p2094
aS'  9  2  8      '
p2095
aS'  6  4  3      '
p2096
aS' 11  0 11      '
p2097
aS' 11  1 11      '
p2098
aS' 11  2 10      '
p2099
aS' 11  1 10      '
p2100
aS' 13  5  8      '
p2101
aS' 12  3  9      '
p2102
aS' 12  4  9      '
p2103
aS'  4  4  1      '
p2104
aS'  4  3  2      '
p2105
aS'  9  7  2      '
p2106
aS'  8  2  6      '
p2107
aS'  8  3  6      '
p2108
aS'  7  3  4      '
p2109
aS'  5  5  1      '
p2110
aS' 12  3 10      '
p2111
aS' 12  2 10      '
p2112
aS'  5  5  0      '
p2113
aS'  7  4  3      '
p2114
aS' 13  4  9      '
p2115
aS'  5  4  1      '
p2116
aS'  7  4  4      '
p2117
aS' 10  2  9      '
p2118
aS' 10  1  9      '
p2119
aS' 12  0 12      '
p2120
aS' 12  1 12      '
p2121
aS' 12  2 11      '
p2122
aS' 12  1 11      '
p2123
aS' 13  3 10      '
p2124
aS' 13  4 10      '
p2125
aS'  9  2  7      '
p2126
aS'  9  3  7      '
p2127
aS' 13  2 11      '
p2128
aS' 13  3 11      '
p2129
aS'  8  3  5      '
p2130
aS' 13  1 13      '
p2131
aS' 13  0 13      '
p2132
aS' 14  5 10      '
p2133
aS'  8  4  5      '
p2134
aS' 11  1 10      '
p2135
aS' 11  2 10      '
p2136
aS'  6  5  2      '
p2137
aS'  5  3  2      '
p2138
aS' 13  1 12      '
p2139
aS' 13  2 12      '
p2140
aS' 14  4 11      '
p2141
aS'  8  5  3      '
p2142
aS' 10  2  8      '
p2143
aS' 10  3  8      '
p2144
aS'  8  4  4      '
p2145
aS' 14  1 14      '
p2146
aS' 14  0 14      '
p2147
aS' 14  3 12      '
p2148
aS' 12  2 11      '
p2149
aS' 12  1 11      '
p2150
aS'  7  5  3      '
p2151
aS'  5  4  2      '
p2152
aS'  9  3  6      '
p2153
aS'  9  4  6      '
p2154
aS'  6  5  1      '
p2155
aS' 14  2 13      '
p2156
aS' 14  1 13      '
p2157
aS'  6  6  1      '
p2158
aS'  6  6  0      '
p2159
aS'  5  2  3      '
p2160
aS' 15  3 12      '
p2161
aS'  5  5  1      '
p2162
aS'  5  3  3      '
p2163
aS' 15  0 15      '
p2164
aS' 11  2  9      '
p2165
aS' 11  3  9      '
p2166
aS'  8  5  4      '
p2167
aS' 15  2 13      '
p2168
aS' 13  1 12      '
p2169
aS' 13  2 12      '
p2170
aS'  9  6  3      '
p2171
aS'  6  4  2      '
p2172
aS' 15  1 14      '
p2173
aS' 10  3  7      '
p2174
aS' 10  4  7      '
p2175
aS'  9  4  5      '
p2176
aS' 16  1 16      '
p2177
aS'  9  5  5      '
p2178
aS' 12  2 10      '
p2179
aS' 12  3 10      '
p2180
aS'  7  6  2      '
p2181
aS'  9  5  4      '
p2182
aS' 14  2 13      '
p2183
aS' 14  1 13      '
p2184
aS' 11  3  8      '
p2185
aS' 11  4  8      '
p2186
aS'  7  6  1      '
p2187
aS'  6  3  3      '
p2188
aS' 10  4  6      '
p2189
aS' 10  5  6      '
p2190
aS'  6  5  2      '
p2191
aS' 13  3 11      '
p2192
aS' 13  2 11      '
p2193
aS' 15  1 14      '
p2194
aS'  8  6  3      '
p2195
aS'  7  7  1      '
p2196
aS'  6  4  3      '
p2197
aS'  5  5  0      '
p2198
aS'  7  7  0      '
p2199
aS'  7  5  2      '
p2200
aS' 12  3  9      '
p2201
aS' 12  4  9      '
p2202
aS' 10  6  4      '
p2203
aS' 10  5  5      '
p2204
aS'  9  6  4      '
p2205
aS'  6  2  4      '
p2206
aS'  6  3  4      '
p2207
aS' 14  3 12      '
p2208
aS' 11  4  7      '
p2209
aS' 11  5  7      '
p2210
aS'  6  6  1      '
p2211
aS' 10  6  5      '
p2212
aS' 13  3 10      '
p2213
aS' 13  4 10      '
p2214
aS'  8  7  2      '
p2215
aS'  7  4  3      '
p2216
aS' 15  2 13      '
p2217
aS' 12  4  8      '
p2218
aS' 12  5  8      '
p2219
aS'  8  7  1      '
p2220
aS' 11  5  6      '
p2221
aS'  8  6  2      '
p2222
aS' 11  6  6      '
p2223
aS'  7  5  3      '
p2224
aS' 14  4 11      '
p2225
aS'  8  8  1      '
p2226
aS'  8  8  0      '
p2227
aS'  7  6  2      '
p2228
aS' 11  6  5      '
p2229
aS'  9  7  3      '
p2230
aS'  7  3  4      '
p2231
aS' 13  4  9      '
p2232
aS'  7  4  4      '
p2233
aS' 12  5  7      '
p2234
aS' 12  6  7      '
p2235
aS'  8  5  3      '
p2236
aS' 10  7  4      '
p2237
aS'  7  2  5      '
p2238
aS'  7  3  5      '
p2239
aS' 14  5 10      '
p2240
aS' 11  7  5      '
p2241
aS'  9  8  2      '
p2242
aS'  9  7  2      '
p2243
aS'  7  7  1      '
p2244
aS' 13  5  8      '
p2245
aS'  9  8  1      '
p2246
aS'  8  6  3      '
p2247
aS' 12  7  6      '
p2248
aS'  8  4  4      '
p2249
aS'  9  9  1      '
p2250
aS'  9  9  0      '
p2251
aS'  8  5  4      '
p2252
aS'  9  6  3      '
p2253
aS' 10  8  3      '
p2254
aS'  8  7  2      '
p2255
aS' 13  6  7      '
p2256
aS'  7  7  0      '
p2257
aS'  7  6  1      '
p2258
aS'  8  3  5      '
p2259
aS'  8  4  5      '
p2260
aS' 10  8  2      '
p2261
aS' 11  8  4      '
p2262
aS'  8  2  6      '
p2263
aS'  8  3  6      '
p2264
aS' 10  9  2      '
p2265
aS' 10  9  1      '
p2266
aS'  9  5  4      '
p2267
aS' 12  8  5      '
p2268
aS' 10  7  3      '
p2269
aS'  9  7  3      '
p2270
aS' 10 10  1      '
p2271
aS' 10 10  0      '
p2272
aS'  9  6  4      '
p2273
aS'  8  8  1      '
p2274
aS'  9  4  5      '
p2275
aS'  9  5  5      '
p2276
aS' 11  9  3      '
p2277
aS' 10  6  4      '
p2278
aS' 11  9  2      '
p2279
aS'  9  8  2      '
p2280
aS' 11  8  3      '
p2281
aS'  9  3  6      '
p2282
aS'  9  4  6      '
p2283
aS' 11 10  2      '
p2284
aS' 11 10  1      '
p2285
aS' 12  9  4      '
p2286
aS'  9  2  7      '
p2287
aS'  9  3  7      '
p2288
aS' 10  7  4      '
p2289
aS' 11 11  1      '
p2290
aS' 11 11  0      '
p2291
aS' 10  5  5      '
p2292
aS' 10  8  3      '
p2293
aS' 11  7  4      '
p2294
aS' 10  6  5      '
p2295
aS' 12 10  3      '
p2296
aS' 12  9  3      '
p2297
aS' 10  4  6      '
p2298
aS' 12 10  2      '
p2299
aS' 10  5  6      '
p2300
aS'  9  8  1      '
p2301
aS' 12 11  2      '
p2302
aS' 12 11  1      '
p2303
aS' 10  3  7      '
p2304
aS' 10  4  7      '
p2305
aS'  9  7  2      '
p2306
aS' 12  8  4      '
p2307
aS' 11  6  5      '
p2308
aS' 10  9  2      '
p2309
aS' 12 12  1      '
p2310
aS' 12 12  0      '
p2311
aS' 11  8  4      '
p2312
aS' 10  2  8      '
p2313
aS' 10  3  8      '
p2314
aS' 11  7  5      '
p2315
aS' 13 10  3      '
p2316
aS' 11  5  6      '
p2317
aS' 11  6  6      '
p2318
aS' 13 11  2      '
p2319
aS' 13  9  4      '
p2320
aS' 12  7  5      '
p2321
aS' 11  4  7      '
p2322
aS' 11  5  7      '
p2323
aS' 13 12  2      '
p2324
aS' 13 12  1      '
p2325
aS' 13 13  1      '
p2326
aS' 13 13  0      '
p2327
aS' 11  3  8      '
p2328
aS' 11  4  8      '
p2329
aS' 12  8  5      '
p2330
aS' 12  9  4      '
p2331
aS' 12  6  6      '
p2332
aS' 11  2  9      '
p2333
aS' 11  3  9      '
p2334
aS' 12  7  6      '
p2335
aS' 13  8  5      '
p2336
aS' 14 12  3      '
p2337
aS' 12  5  7      '
p2338
aS' 12  6  7      '
p2339
aS' 14 13  2      '
p2340
aS' 12  4  8      '
p2341
aS' 12  5  8      '
p2342
aS' 14 14  1      '
p2343
aS' 13  7  6      '
p2344
aS' 12  3  9      '
p2345
aS' 12  4  9      '
p2346
aS' 12  3 10      '
p2347
aS' 13  6  7      '
p2348
aS' 13  5  8      '
p2349
aS' 13  4  9      '
p2350
aS' 13  3 10      '
p2351
aS' 13  2 11      '
p2352
aS' 14  7  8      '
p2353
aS' 14  6  9      '
p2354
aS' 14  5 10      '
p2355
aS' 14  4 11      '
p2356
asg133
(lp2357
S' 1 1 6 4 0 1'
p2358
aS' 1 1 6 4 0 1'
p2359
aS' 1 1 6 4 0 1'
p2360
aS' 1 1 6 4 0 1'
p2361
aS' 1 1 6 4 0 1'
p2362
aS' 1 1 6 4 0 1'
p2363
aS' 1 1 6 4 0 1'
p2364
aS' 1 1 6 4 0 1'
p2365
aS' 1 1 6 4 0 1'
p2366
aS' 1 1 6 4 0 1'
p2367
aS' 1 1 6 4 0 1'
p2368
aS' 1 1 6 4 0 1'
p2369
aS' 1 1 6 4 0 1'
p2370
aS' 1 1 6 4 0 1'
p2371
aS' 1 1 6 4 0 1'
p2372
aS' 1 1 6 4 0 1'
p2373
aS' 1 1 6 4 0 1'
p2374
aS' 1 1 6 4 0 1'
p2375
aS' 1 1 6 4 0 1'
p2376
aS' 1 1 6 4 0 1'
p2377
aS' 1 1 6 4 0 1'
p2378
aS' 1 1 6 4 0 1'
p2379
aS' 1 1 6 4 0 1'
p2380
aS' 1 1 6 4 0 1'
p2381
aS' 1 1 6 4 0 1'
p2382
aS' 1 1 6 4 0 1'
p2383
aS' 1 1 6 4 0 1'
p2384
aS' 1 1 6 4 0 1'
p2385
aS' 1 1 6 4 0 1'
p2386
aS' 1 1 6 4 0 1'
p2387
aS' 1 1 6 4 0 1'
p2388
aS' 1 1 6 4 0 1'
p2389
aS' 1 1 6 4 0 1'
p2390
aS' 1 1 6 4 0 1'
p2391
aS' 1 1 6 4 0 1'
p2392
aS' 1 1 6 4 0 1'
p2393
aS' 1 1 6 4 0 1'
p2394
aS' 1 1 6 4 0 1'
p2395
aS' 1 1 6 4 0 1'
p2396
aS' 1 1 6 4 0 1'
p2397
aS' 1 1 6 4 0 1'
p2398
aS' 1 1 4 4 0 1'
p2399
aS' 1 1 6 4 0 1'
p2400
aS' 1 1 6 4 0 1'
p2401
aS' 1 1 4 4 0 1'
p2402
aS' 1 1 4 4 0 1'
p2403
aS' 1 1 6 4 0 1'
p2404
aS' 1 1 6 4 0 1'
p2405
aS' 1 1 6 4 0 1'
p2406
aS' 1 1 4 4 0 1'
p2407
aS' 1 1 4 4 0 1'
p2408
aS' 1 1 6 4 0 1'
p2409
aS' 1 1 6 4 0 1'
p2410
aS' 1 1 6 4 0 1'
p2411
aS' 1 1 4 4 0 1'
p2412
aS' 1 1 6 4 0 1'
p2413
aS' 1 1 6 4 0 1'
p2414
aS' 1 1 4 4 0 1'
p2415
aS' 1 1 4 4 0 1'
p2416
aS' 1 1 6 4 0 1'
p2417
aS' 1 1 6 4 0 1'
p2418
aS' 1 1 6 4 0 1'
p2419
aS' 1 1 4 4 0 1'
p2420
aS' 1 1 6 4 0 1'
p2421
aS' 1 1 6 4 0 1'
p2422
aS' 1 1 6 4 0 1'
p2423
aS' 1 1 6 4 0 1'
p2424
aS' 1 1 6 4 0 1'
p2425
aS' 1 1 4 4 0 1'
p2426
aS' 1 1 6 4 0 1'
p2427
aS' 1 1 6 4 0 1'
p2428
aS' 1 1 6 4 0 1'
p2429
aS' 1 1 6 4 0 1'
p2430
aS' 1 1 6 4 0 1'
p2431
aS' 1 1 6 4 0 1'
p2432
aS' 1 1 6 4 0 1'
p2433
aS' 1 1 6 4 0 1'
p2434
aS' 1 1 6 4 0 1'
p2435
aS' 1 1 6 4 0 1'
p2436
aS' 1 1 6 4 0 1'
p2437
aS' 1 1 4 4 0 1'
p2438
aS' 1 1 6 4 0 1'
p2439
aS' 1 1 4 4 0 1'
p2440
aS' 1 1 4 4 0 1'
p2441
aS' 1 1 6 4 0 1'
p2442
aS' 1 1 6 4 0 1'
p2443
aS' 1 1 6 4 0 1'
p2444
aS' 1 1 6 4 0 1'
p2445
aS' 1 1 6 4 0 1'
p2446
aS' 1 1 6 4 0 1'
p2447
aS' 1 1 6 4 0 1'
p2448
aS' 1 1 6 4 0 1'
p2449
aS' 1 1 6 4 0 1'
p2450
aS' 1 1 6 4 0 1'
p2451
aS' 1 1 6 4 0 1'
p2452
aS' 1 1 6 4 0 1'
p2453
aS' 1 1 6 4 0 1'
p2454
aS' 1 1 6 4 0 1'
p2455
aS' 1 1 6 4 0 1'
p2456
aS' 1 1 6 4 0 1'
p2457
aS' 1 1 6 4 0 1'
p2458
aS' 1 1 6 1 0 1'
p2459
aS' 1 1 6 4 0 1'
p2460
aS' 1 1 6 4 0 1'
p2461
aS' 1 1 6 4 0 1'
p2462
aS' 1 1 6 4 0 1'
p2463
aS' 1 1 6 4 0 1'
p2464
aS' 1 1 6 1 0 1'
p2465
aS' 1 1 2 1 0 1'
p2466
aS' 1 1 2 1 0 1'
p2467
aS' 1 1 2 1 0 1'
p2468
aS' 1 1 2 1 0 1'
p2469
aS' 1 1 2 1 0 1'
p2470
aS' 1 1 6 4 0 1'
p2471
aS' 1 1 6 4 0 1'
p2472
aS' 1 1 6 4 0 1'
p2473
aS' 1 1 6 4 0 1'
p2474
aS' 1 1 2 1 0 1'
p2475
aS' 1 1 2 1 0 1'
p2476
aS' 1 1 6 1 0 1'
p2477
aS' 1 1 6 4 0 1'
p2478
aS' 1 1 6 4 0 1'
p2479
aS' 1 1 2 1 0 1'
p2480
aS' 1 1 6 4 0 1'
p2481
aS' 1 1 6 4 0 1'
p2482
aS' 1 1 6 4 0 1'
p2483
aS' 1 1 6 1 0 1'
p2484
aS' 1 1 6 4 0 1'
p2485
aS' 1 1 6 4 0 1'
p2486
aS' 1 1 2 1 0 1'
p2487
aS' 1 1 6 4 0 1'
p2488
aS' 1 1 2 1 0 1'
p2489
aS' 1 1 6 4 0 1'
p2490
aS' 1 1 6 1 0 1'
p2491
aS' 1 1 6 4 0 1'
p2492
aS' 1 1 6 4 0 1'
p2493
aS' 1 1 6 4 0 1'
p2494
aS' 1 1 6 4 0 1'
p2495
aS' 1 1 6 4 0 1'
p2496
aS' 1 1 6 1 0 1'
p2497
aS' 1 1 6 1 0 1'
p2498
aS' 1 1 6 1 0 1'
p2499
aS' 1 1 6 4 0 1'
p2500
aS' 1 1 6 4 0 1'
p2501
aS' 1 1 6 4 0 1'
p2502
aS' 1 1 6 4 0 1'
p2503
aS' 1 1 6 4 0 1'
p2504
aS' 1 1 6 4 0 1'
p2505
aS' 1 1 2 1 0 1'
p2506
aS' 1 1 6 4 0 1'
p2507
aS' 1 1 6 4 0 1'
p2508
aS' 1 1 6 4 0 1'
p2509
aS' 1 1 6 4 0 1'
p2510
aS' 1 1 6 4 0 1'
p2511
aS' 1 1 6 4 0 1'
p2512
aS' 1 1 6 4 0 1'
p2513
aS' 1 1 6 4 0 1'
p2514
aS' 1 1 2 4 0 1'
p2515
aS' 1 1 6 4 0 1'
p2516
aS' 1 1 6 4 0 1'
p2517
aS' 1 1 6 4 0 1'
p2518
aS' 1 1 6 4 0 1'
p2519
aS' 1 1 6 4 0 1'
p2520
aS' 1 1 6 4 0 1'
p2521
aS' 1 1 6 4 0 1'
p2522
aS' 1 1 6 4 0 1'
p2523
aS' 1 1 6 4 0 1'
p2524
aS' 1 1 6 4 0 1'
p2525
aS' 1 1 6 4 0 1'
p2526
aS' 1 1 6 4 0 1'
p2527
aS' 1 1 6 1 0 1'
p2528
aS' 1 1 6 4 0 1'
p2529
aS' 1 1 6 4 0 1'
p2530
aS' 1 1 6 4 0 1'
p2531
aS' 1 1 6 4 0 1'
p2532
aS' 1 1 6 4 0 1'
p2533
aS' 1 1 6 4 0 1'
p2534
aS' 1 1 6 4 0 1'
p2535
aS' 1 1 6 4 0 1'
p2536
aS' 1 1 6 4 0 1'
p2537
aS' 1 1 6 4 0 1'
p2538
aS' 1 1 6 4 0 1'
p2539
aS' 1 1 6 4 0 1'
p2540
aS' 1 1 6 4 0 1'
p2541
aS' 1 1 6 4 0 1'
p2542
aS' 1 1 6 4 0 1'
p2543
aS' 1 1 6 4 0 1'
p2544
aS' 1 1 6 4 0 1'
p2545
aS' 1 1 6 4 0 1'
p2546
aS' 1 1 6 4 0 1'
p2547
aS' 1 1 6 4 0 1'
p2548
aS' 1 1 6 4 0 1'
p2549
aS' 1 1 6 4 0 1'
p2550
aS' 1 1 6 4 0 1'
p2551
aS' 1 1 6 4 0 1'
p2552
aS' 1 1 6 4 0 1'
p2553
aS' 1 1 6 4 0 1'
p2554
aS' 1 1 6 4 0 1'
p2555
aS' 1 1 6 4 0 1'
p2556
aS' 1 1 6 4 0 1'
p2557
aS' 1 1 6 4 0 1'
p2558
aS' 1 1 6 4 0 1'
p2559
aS' 1 1 6 4 0 1'
p2560
aS' 1 1 6 4 0 1'
p2561
aS' 1 1 6 4 0 1'
p2562
aS' 1 1 6 4 0 1'
p2563
aS' 1 1 6 4 0 1'
p2564
aS' 1 1 6 4 0 1'
p2565
aS' 1 1 6 4 0 1'
p2566
aS' 1 1 6 4 0 1'
p2567
aS' 1 1 6 4 0 1'
p2568
aS' 1 1 6 4 0 1'
p2569
aS' 1 1 6 4 0 1'
p2570
aS' 1 1 6 4 0 1'
p2571
aS' 1 1 6 4 0 1'
p2572
aS' 1 1 6 4 0 1'
p2573
aS' 1 1 6 4 0 1'
p2574
aS' 1 1 4 4 0 1'
p2575
aS' 1 1 4 4 0 1'
p2576
aS' 1 1 6 4 0 1'
p2577
aS' 1 1 4 4 0 1'
p2578
aS' 1 1 6 4 0 1'
p2579
aS' 1 1 6 4 0 1'
p2580
aS' 1 1 6 4 0 1'
p2581
aS' 1 1 6 4 0 1'
p2582
aS' 1 1 6 4 0 1'
p2583
aS' 1 1 6 4 0 1'
p2584
aS' 1 1 6 4 0 1'
p2585
aS' 1 1 6 4 0 1'
p2586
aS' 1 1 6 4 0 1'
p2587
aS' 1 1 6 4 0 1'
p2588
aS' 1 1 6 4 0 1'
p2589
aS' 1 1 6 4 0 1'
p2590
aS' 1 1 6 4 0 1'
p2591
aS' 1 1 6 4 0 1'
p2592
aS' 1 1 6 4 0 1'
p2593
aS' 1 1 6 4 0 1'
p2594
aS' 1 1 6 4 0 1'
p2595
aS' 1 1 6 4 0 1'
p2596
aS' 1 1 6 4 0 1'
p2597
aS' 1 1 6 4 0 1'
p2598
aS' 1 1 4 4 0 1'
p2599
aS' 1 1 4 4 0 1'
p2600
aS' 1 1 4 4 0 1'
p2601
aS' 1 1 6 4 0 1'
p2602
aS' 1 1 6 4 0 1'
p2603
aS' 1 1 6 4 0 1'
p2604
aS' 1 1 6 4 0 1'
p2605
aS' 1 1 6 4 0 1'
p2606
aS' 1 1 6 4 0 1'
p2607
aS' 1 1 4 4 0 1'
p2608
aS' 1 1 6 4 0 1'
p2609
aS' 1 1 6 4 0 1'
p2610
aS' 1 1 6 4 0 1'
p2611
aS' 1 1 6 4 0 1'
p2612
aS' 1 1 6 4 0 1'
p2613
aS' 1 1 6 4 0 1'
p2614
aS' 1 1 6 4 0 1'
p2615
aS' 1 1 6 4 0 1'
p2616
aS' 1 1 6 4 0 1'
p2617
aS' 1 1 6 4 0 1'
p2618
aS' 1 1 6 4 0 1'
p2619
aS' 1 1 6 4 0 1'
p2620
aS' 1 1 6 4 0 1'
p2621
aS' 1 1 4 4 0 1'
p2622
aS' 1 1 4 4 0 1'
p2623
aS' 1 1 6 4 0 1'
p2624
aS' 1 1 6 4 0 1'
p2625
aS' 1 1 6 4 0 1'
p2626
aS' 1 1 4 4 0 1'
p2627
aS' 1 1 6 4 0 1'
p2628
aS' 1 1 6 4 0 1'
p2629
aS' 1 1 6 4 0 1'
p2630
aS' 1 1 6 4 0 1'
p2631
aS' 1 1 6 4 0 1'
p2632
aS' 1 1 6 4 0 1'
p2633
aS' 1 1 6 4 0 1'
p2634
aS' 1 1 6 4 0 1'
p2635
aS' 1 1 4 4 0 1'
p2636
aS' 1 1 6 4 0 1'
p2637
aS' 1 1 6 4 0 1'
p2638
aS' 1 1 6 4 0 1'
p2639
aS' 1 1 6 4 0 1'
p2640
aS' 1 1 6 4 0 1'
p2641
aS' 1 1 6 4 0 1'
p2642
aS' 1 1 6 4 0 1'
p2643
aS' 1 1 6 4 0 1'
p2644
aS' 1 1 6 4 0 1'
p2645
aS' 1 1 6 4 0 1'
p2646
aS' 1 1 6 4 0 1'
p2647
aS' 1 1 4 4 0 1'
p2648
aS' 1 1 6 4 0 1'
p2649
aS' 1 1 4 4 0 1'
p2650
aS' 1 1 6 4 0 1'
p2651
aS' 1 1 6 4 0 1'
p2652
aS' 1 1 6 4 0 1'
p2653
aS' 1 1 6 4 0 1'
p2654
aS' 1 1 6 4 0 1'
p2655
aS' 1 1 6 4 0 1'
p2656
aS' 1 1 6 4 0 1'
p2657
aS' 1 1 6 4 0 1'
p2658
aS' 1 1 4 4 0 1'
p2659
aS' 1 1 4 4 0 1'
p2660
aS' 1 1 6 4 0 1'
p2661
aS' 1 1 6 4 0 1'
p2662
aS' 1 1 6 4 0 1'
p2663
aS' 1 1 6 4 0 1'
p2664
aS' 1 1 6 4 0 1'
p2665
aS' 1 1 6 4 0 1'
p2666
aS' 1 1 6 4 0 1'
p2667
aS' 1 1 6 3 0 1'
p2668
aS' 1 1 6 4 0 1'
p2669
aS' 1 1 4 4 0 1'
p2670
aS' 1 1 4 4 0 1'
p2671
aS' 1 1 4 4 0 1'
p2672
aS' 1 1 4 4 0 1'
p2673
aS' 1 1 6 4 0 1'
p2674
aS' 1 1 6 4 0 1'
p2675
aS' 1 1 6 4 0 1'
p2676
aS' 1 1 6 4 0 1'
p2677
aS' 1 1 4 4 0 1'
p2678
aS' 1 1 4 4 0 1'
p2679
aS' 1 1 6 4 0 1'
p2680
aS' 1 1 6 4 0 1'
p2681
aS' 1 1 6 4 0 1'
p2682
aS' 1 1 6 4 0 1'
p2683
aS' 1 1 6 4 0 1'
p2684
aS' 1 1 6 4 0 1'
p2685
aS' 1 1 6 4 0 1'
p2686
aS' 1 1 6 4 0 1'
p2687
aS' 1 1 6 4 0 1'
p2688
aS' 1 1 4 4 0 1'
p2689
aS' 1 1 4 4 0 1'
p2690
aS' 1 1 6 4 0 1'
p2691
aS' 1 1 6 4 0 1'
p2692
aS' 1 1 6 4 0 1'
p2693
aS' 1 1 6 4 0 1'
p2694
aS' 1 1 6 4 0 1'
p2695
aS' 1 1 6 4 0 1'
p2696
aS' 1 1 6 4 0 1'
p2697
aS' 1 1 6 4 0 1'
p2698
aS' 1 1 6 4 0 1'
p2699
aS' 1 1 6 4 0 1'
p2700
aS' 1 1 6 4 0 1'
p2701
aS' 1 1 6 4 0 1'
p2702
aS' 1 1 6 4 0 1'
p2703
aS' 1 1 6 4 0 1'
p2704
aS' 1 1 4 4 0 1'
p2705
aS' 1 1 6 4 0 1'
p2706
aS' 1 1 6 4 0 1'
p2707
aS' 1 1 6 4 0 1'
p2708
aS' 1 1 6 4 0 1'
p2709
aS' 1 1 6 4 0 1'
p2710
aS' 1 1 6 4 0 1'
p2711
aS' 1 1 6 4 0 1'
p2712
aS' 1 1 6 4 0 1'
p2713
aS' 1 1 6 4 0 1'
p2714
aS' 1 1 6 4 0 1'
p2715
aS' 1 1 6 4 0 1'
p2716
aS' 1 1 6 4 0 1'
p2717
aS' 1 1 6 4 0 1'
p2718
aS' 1 1 6 4 0 1'
p2719
aS' 1 1 6 4 0 1'
p2720
aS' 1 1 6 4 0 1'
p2721
aS' 1 1 6 4 0 1'
p2722
aS' 1 1 6 4 0 1'
p2723
aS' 1 1 4 4 0 1'
p2724
aS' 1 1 6 4 0 1'
p2725
aS' 1 1 6 4 0 1'
p2726
aS' 1 1 6 4 0 1'
p2727
aS' 1 1 6 4 0 1'
p2728
aS' 1 1 6 4 0 1'
p2729
aS' 1 1 6 4 0 1'
p2730
aS' 1 1 6 4 0 1'
p2731
aS' 1 1 6 4 0 1'
p2732
aS' 1 1 6 4 0 1'
p2733
aS' 1 1 6 4 0 1'
p2734
aS' 1 1 6 4 0 1'
p2735
aS' 1 1 6 4 0 1'
p2736
aS' 1 1 6 4 0 1'
p2737
aS' 1 1 6 4 0 1'
p2738
aS' 1 1 6 4 0 1'
p2739
aS' 1 1 6 4 0 1'
p2740
aS' 1 1 6 4 0 1'
p2741
aS' 1 1 6 4 0 1'
p2742
aS' 1 1 6 4 0 1'
p2743
aS' 1 1 6 4 0 1'
p2744
aS' 1 1 6 4 0 1'
p2745
aS' 1 1 6 4 0 1'
p2746
aS' 1 1 6 4 0 1'
p2747
aS' 1 1 6 4 0 1'
p2748
aS' 1 1 6 4 0 1'
p2749
aS' 1 1 6 4 0 1'
p2750
aS' 1 1 6 4 0 1'
p2751
aS' 1 1 6 4 0 1'
p2752
aS' 1 1 6 4 0 1'
p2753
aS' 1 1 6 4 0 1'
p2754
aS' 1 1 6 4 0 1'
p2755
aS' 1 1 6 4 0 1'
p2756
aS' 1 1 6 4 0 1'
p2757
aS' 1 1 6 4 0 1'
p2758
aS' 1 1 6 4 0 1'
p2759
aS' 1 1 6 4 0 1'
p2760
aS' 1 1 6 4 0 1'
p2761
aS' 1 1 6 4 0 1'
p2762
aS' 1 1 6 4 0 1'
p2763
aS' 1 1 6 4 0 1'
p2764
aS' 1 1 6 4 0 1'
p2765
aS' 1 1 6 4 0 1'
p2766
aS' 1 1 6 4 0 1'
p2767
aS' 1 1 6 4 0 1'
p2768
aS' 1 1 6 4 0 1'
p2769
aS' 1 1 6 4 0 1'
p2770
aS' 1 1 6 4 0 1'
p2771
aS' 1 1 6 4 0 1'
p2772
aS' 1 1 6 4 0 1'
p2773
aS' 1 1 6 4 0 1'
p2774
aS' 1 1 6 4 0 1'
p2775
aS' 1 1 6 4 0 1'
p2776
aS' 1 1 6 4 0 1'
p2777
aS' 1 1 6 4 0 1'
p2778
aS' 1 1 6 4 0 1'
p2779
aS' 1 1 6 4 0 1'
p2780
aS' 1 1 6 4 0 1'
p2781
aS' 1 1 6 4 0 1'
p2782
aS' 1 1 6 4 0 1'
p2783
aS' 1 1 6 4 0 1'
p2784
aS' 1 1 6 4 0 1'
p2785
aS' 1 1 6 4 0 1'
p2786
aS' 1 1 6 4 0 1'
p2787
aS' 1 1 6 4 0 1'
p2788
aS' 1 1 6 4 0 1'
p2789
aS' 1 1 6 4 0 1'
p2790
aS' 1 1 6 4 0 1'
p2791
aS' 1 1 6 4 0 1'
p2792
aS' 1 1 6 4 0 1'
p2793
aS' 1 1 6 4 0 1'
p2794
aS' 1 1 6 4 0 1'
p2795
aS' 1 1 6 4 0 1'
p2796
aS' 1 1 6 4 0 1'
p2797
aS' 1 1 6 4 0 1'
p2798
aS' 1 1 6 4 0 1'
p2799
aS' 1 1 6 4 0 1'
p2800
aS' 1 1 6 4 0 1'
p2801
aS' 1 1 6 4 0 1'
p2802
aS' 1 1 6 4 0 1'
p2803
aS' 1 1 6 4 0 1'
p2804
aS' 1 1 6 4 0 1'
p2805
aS' 1 1 6 4 0 1'
p2806
aS' 1 1 6 4 0 1'
p2807
aS' 1 1 6 4 0 1'
p2808
aS' 1 1 6 4 0 1'
p2809
aS' 1 1 6 4 0 1'
p2810
aS' 1 1 6 4 0 1'
p2811
aS' 1 1 6 4 0 1'
p2812
aS' 1 1 6 4 0 1'
p2813
aS' 1 1 6 4 0 1'
p2814
aS' 1 1 6 4 0 1'
p2815
aS' 1 1 6 4 0 1'
p2816
aS' 1 1 6 4 0 1'
p2817
aS' 1 1 6 4 0 1'
p2818
aS' 1 1 6 4 0 1'
p2819
aS' 1 1 6 4 0 1'
p2820
aS' 1 1 6 4 0 1'
p2821
aS' 1 1 6 4 0 1'
p2822
aS' 1 1 6 4 0 1'
p2823
aS' 1 1 6 4 0 1'
p2824
aS' 1 1 6 4 0 1'
p2825
aS' 1 1 6 4 0 1'
p2826
aS' 1 1 6 4 0 1'
p2827
aS' 1 1 6 4 0 1'
p2828
aS' 1 1 6 4 0 1'
p2829
aS' 1 1 6 4 0 1'
p2830
aS' 1 1 6 4 0 1'
p2831
aS' 1 1 6 4 0 1'
p2832
aS' 1 1 6 4 0 1'
p2833
aS' 1 1 6 4 0 1'
p2834
aS' 1 1 6 4 0 1'
p2835
aS' 1 1 6 4 0 1'
p2836
aS' 1 1 6 4 0 1'
p2837
aS' 1 1 6 4 0 1'
p2838
aS' 1 1 6 4 0 1'
p2839
aS' 1 1 6 4 0 1'
p2840
aS' 1 1 6 4 0 1'
p2841
aS' 1 1 6 4 0 1'
p2842
aS' 1 1 6 4 0 1'
p2843
aS' 1 1 6 4 0 1'
p2844
aS' 1 1 6 4 0 1'
p2845
aS' 1 1 6 4 0 1'
p2846
aS' 1 1 6 4 0 1'
p2847
aS' 1 1 6 4 0 1'
p2848
aS' 1 1 6 4 0 1'
p2849
aS' 1 1 6 4 0 1'
p2850
aS' 1 1 6 4 0 1'
p2851
aS' 1 1 6 4 0 1'
p2852
aS' 1 1 6 4 0 1'
p2853
aS' 1 1 6 4 0 1'
p2854
aS' 1 1 6 4 0 1'
p2855
aS' 1 1 6 4 0 1'
p2856
aS' 1 1 6 4 0 1'
p2857
aS' 1 1 6 4 0 1'
p2858
aS' 1 1 6 4 0 1'
p2859
aS' 1 1 6 4 0 1'
p2860
aS' 1 1 6 4 0 1'
p2861
aS' 1 1 6 4 0 1'
p2862
aS' 1 1 6 4 0 1'
p2863
aS' 1 1 6 4 0 1'
p2864
aS' 1 1 6 4 0 1'
p2865
aS' 1 1 6 4 0 1'
p2866
aS' 1 1 6 4 0 1'
p2867
aS' 1 1 6 4 0 1'
p2868
aS' 1 1 6 4 0 1'
p2869
aS' 1 1 6 4 0 1'
p2870
aS' 1 1 6 4 0 1'
p2871
aS' 1 1 6 4 0 1'
p2872
aS' 1 1 6 4 0 1'
p2873
aS' 1 1 6 4 0 1'
p2874
aS' 1 1 6 4 0 1'
p2875
aS' 1 1 6 4 0 1'
p2876
aS' 1 1 6 4 0 1'
p2877
aS' 1 1 6 4 0 1'
p2878
aS' 1 1 6 4 0 1'
p2879
aS' 1 1 6 4 0 1'
p2880
aS' 1 1 6 4 0 1'
p2881
aS' 1 1 6 4 0 1'
p2882
aS' 1 1 6 4 0 1'
p2883
aS' 1 1 6 4 0 1'
p2884
aS' 1 1 6 4 0 1'
p2885
aS' 1 1 6 4 0 1'
p2886
aS' 1 1 6 4 0 1'
p2887
aS' 1 1 6 4 0 1'
p2888
aS' 1 1 6 4 0 1'
p2889
aS' 1 1 6 4 0 1'
p2890
aS' 1 1 6 4 0 1'
p2891
aS' 1 1 6 4 0 1'
p2892
aS' 1 1 6 4 0 1'
p2893
aS' 1 1 6 4 0 1'
p2894
aS' 1 1 6 4 0 1'
p2895
aS' 1 1 6 4 0 1'
p2896
aS' 1 1 6 4 0 1'
p2897
aS' 1 1 6 4 0 1'
p2898
aS' 1 1 6 4 0 1'
p2899
aS' 1 1 6 4 0 1'
p2900
aS' 1 1 6 4 0 1'
p2901
aS' 1 1 6 4 0 1'
p2902
aS' 1 1 6 4 0 1'
p2903
aS' 1 1 6 4 0 1'
p2904
aS' 1 1 6 4 0 1'
p2905
aS' 1 1 6 4 0 1'
p2906
aS' 1 1 6 4 0 1'
p2907
aS' 1 1 6 4 0 1'
p2908
asg119
(lp2909
I31
aI31
aI31
aI31
aI31
aI31
aI31
aI31
aI31
aI31
aI31
aI31
aI31
aI31
aI31
aI31
aI31
aI31
aI31
aI31
aI31
aI31
aI31
aI31
aI31
aI31
aI31
aI31
aI31
aI31
aI31
aI31
aI31
aI31
aI31
aI31
aI31
aI31
aI31
aI31
aI31
aI31
aI31
aI31
aI31
aI31
aI31
aI31
aI31
aI31
aI31
aI31
aI31
aI31
aI31
aI31
aI31
aI31
aI31
aI31
aI31
aI31
aI31
aI31
aI31
aI31
aI31
aI31
aI31
aI31
aI31
aI31
aI31
aI31
aI31
aI31
aI31
aI31
aI31
aI31
aI31
aI31
aI31
aI31
aI31
aI31
aI31
aI31
aI31
aI31
aI31
aI31
aI31
aI31
aI31
aI31
aI31
aI31
aI31
aI31
aI31
aI31
aI31
aI31
aI31
aI31
aI31
aI31
aI31
aI31
aI31
aI31
aI31
aI31
aI31
aI31
aI31
aI31
aI31
aI31
aI31
aI31
aI31
aI31
aI31
aI31
aI31
aI31
aI31
aI31
aI31
aI31
aI31
aI31
aI31
aI31
aI31
aI31
aI31
aI31
aI31
aI31
aI31
aI31
aI31
aI31
aI31
aI31
aI31
aI31
aI31
aI31
aI31
aI31
aI31
aI31
aI31
aI31
aI31
aI31
aI31
aI31
aI31
aI31
aI31
aI31
aI31
aI31
aI31
aI31
aI31
aI31
aI31
aI31
aI31
aI31
aI31
aI31
aI31
aI31
aI31
aI31
aI31
aI31
aI31
aI31
aI31
aI31
aI31
aI31
aI31
aI31
aI31
aI31
aI31
aI31
aI31
aI31
aI31
aI31
aI31
aI31
aI31
aI31
aI31
aI31
aI31
aI31
aI31
aI31
aI31
aI31
aI31
aI31
aI31
aI31
aI31
aI31
aI31
aI31
aI31
aI31
aI31
aI31
aI31
aI31
aI31
aI31
aI31
aI31
aI31
aI31
aI31
aI31
aI31
aI31
aI31
aI31
aI31
aI31
aI31
aI31
aI31
aI31
aI31
aI31
aI31
aI31
aI31
aI31
aI31
aI31
aI31
aI31
aI31
aI31
aI31
aI31
aI31
aI31
aI31
aI31
aI31
aI31
aI31
aI31
aI31
aI31
aI31
aI31
aI31
aI31
aI31
aI31
aI31
aI31
aI31
aI31
aI31
aI31
aI31
aI31
aI31
aI31
aI31
aI31
aI31
aI31
aI31
aI31
aI31
aI31
aI31
aI31
aI31
aI31
aI31
aI31
aI31
aI31
aI31
aI31
aI31
aI31
aI31
aI31
aI31
aI31
aI31
aI31
aI31
aI31
aI31
aI31
aI31
aI31
aI31
aI31
aI31
aI31
aI31
aI31
aI31
aI31
aI31
aI31
aI31
aI31
aI31
aI31
aI31
aI31
aI31
aI31
aI31
aI31
aI31
aI31
aI31
aI31
aI31
aI31
aI31
aI31
aI31
aI31
aI31
aI31
aI31
aI31
aI31
aI31
aI31
aI31
aI31
aI31
aI31
aI31
aI31
aI31
aI31
aI31
aI31
aI31
aI31
aI31
aI31
aI31
aI31
aI31
aI31
aI31
aI31
aI31
aI31
aI31
aI31
aI31
aI31
aI31
aI31
aI31
aI31
aI31
aI31
aI31
aI31
aI31
aI31
aI31
aI31
aI31
aI31
aI31
aI31
aI31
aI31
aI31
aI31
aI31
aI31
aI31
aI31
aI31
aI31
aI31
aI31
aI31
aI31
aI31
aI31
aI31
aI31
aI31
aI31
aI31
aI31
aI31
aI31
aI31
aI31
aI31
aI31
aI31
aI31
aI31
aI31
aI31
aI31
aI31
aI31
aI31
aI31
aI31
aI31
aI31
aI31
aI31
aI31
aI31
aI31
aI31
aI31
aI31
aI31
aI31
aI31
aI31
aI31
aI31
aI31
aI31
aI31
aI31
aI31
aI31
aI31
aI31
aI31
aI31
aI31
aI31
aI31
aI31
aI31
aI31
aI31
aI31
aI31
aI31
aI31
aI31
aI31
aI31
aI31
aI31
aI31
aI31
aI31
aI31
aI31
aI31
aI31
aI31
aI31
aI31
aI31
aI31
aI31
aI31
aI31
aI31
aI31
aI31
aI31
aI31
aI31
aI31
aI31
aI31
aI31
aI31
aI31
aI31
aI31
aI31
aI31
aI31
aI31
aI31
aI31
aI31
aI31
aI31
aI31
aI31
aI31
aI31
aI31
aI31
aI31
aI31
aI31
aI31
aI31
aI31
aI31
aI31
aI31
aI31
aI31
aI31
aI31
aI31
aI31
aI31
aI31
aI31
aI31
aI31
aI31
aI31
aI31
aI31
aI31
aI31
aI31
aI31
aI31
aI31
aI31
asg136
(lp2910
F51
aF51
aF57
aF45
aF63
aF63
aF57
aF57
aF57
aF45
aF93
aF39
aF87
aF17
aF51
aF51
aF45
aF81
aF81
aF27
aF45
aF45
aF15
aF75
aF75
aF25
aF23
aF69
aF23
aF69
aF39
aF63
aF69
aF63
aF21
aF21
aF63
aF57
aF19
aF57
aF63
aF51
aF57
aF19
aF51
aF17
aF57
aF15
aF45
aF17
aF51
aF63
aF15
aF45
aF39
aF13
aF51
aF15
aF45
aF11
aF39
aF13
aF33
aF27
aF33
aF39
aF13
aF21
aF11
aF33
aF7
aF11
aF33
aF27
aF9
aF9
aF7
aF5
aF27
aF9
aF21
aF15
aF7
aF21
aF33
aF7
aF15
aF21
aF27
aF5
aF39
aF45
aF9
aF27
aF7
aF15
aF33
aF3
aF5
aF33
aF13
aF21
aF9
aF45
aF9
aF13
aF45
aF33
aF21
aF5
aF9
aF9
aF5
aF21
aF5
aF21
aF1
aF9
aF15
aF9
aF33
aF7
aF3
aF9
aF21
aF9
aF33
aF7
aF13
aF27
aF13
aF33
aF27
aF45
aF15
aF5
aF11
aF11
aF45
aF17
aF9
aF27
aF9
aF13
aF33
aF39
aF11
aF13
aF45
aF17
aF15
aF39
aF39
aF7
aF21
aF57
aF57
aF3
aF17
aF15
aF33
aF11
aF15
aF5
aF21
aF45
aF13
aF21
aF39
aF15
aF45
aF27
aF9
aF51
aF15
aF51
aF21
aF17
aF7
aF69
aF57
aF21
aF51
aF57
aF21
aF13
aF39
aF17
aF69
aF19
aF51
aF7
aF45
aF15
aF5
aF19
aF11
aF33
aF19
aF33
aF17
aF51
aF27
aF9
aF15
aF69
aF63
aF63
aF57
aF45
aF15
aF57
aF19
aF19
aF21
aF39
aF13
aF17
aF51
aF63
aF21
aF63
aF15
aF69
aF57
aF27
aF19
aF27
aF33
aF11
aF33
aF23
aF63
aF17
aF51
aF21
aF63
aF69
aF45
aF15
aF9
aF57
aF19
aF5
aF75
aF69
aF23
aF45
aF39
aF13
aF21
aF21
aF63
aF57
aF19
aF11
aF75
aF17
aF51
aF7
aF33
aF11
aF69
aF23
aF21
aF63
aF7
aF11
aF15
aF45
aF75
aF69
aF23
aF63
aF21
aF9
aF19
aF57
aF39
aF13
aF81
aF25
aF75
aF69
aF23
aF39
aF45
aF7
aF51
aF17
aF33
aF63
aF21
aF23
aF69
aF81
aF25
aF75
aF21
aF21
aF57
aF15
aF45
aF39
aF9
aF75
aF25
aF27
aF39
aF81
aF27
aF13
aF57
aF19
aF23
aF69
aF75
aF25
aF81
aF27
aF51
aF17
aF81
aF27
aF15
aF25
aF75
aF87
aF45
aF63
aF21
aF33
aF27
aF81
aF27
aF87
aF15
aF19
aF57
aF15
aF81
aF27
aF87
aF69
aF23
aF13
aF9
aF51
aF17
aF11
aF87
aF29
aF33
aF11
aF27
aF93
aF9
aF9
aF87
aF63
aF21
aF45
aF93
aF75
aF25
aF51
aF11
aF93
aF19
aF57
aF51
aF93
aF17
aF23
aF69
aF13
aF51
aF81
aF27
aF63
aF21
aF39
aF11
aF19
aF57
aF33
aF25
aF75
aF87
aF45
aF13
aF33
aF27
aF39
aF39
aF23
aF69
aF19
aF19
aF17
aF11
aF33
aF81
aF63
aF21
aF33
aF57
aF75
aF25
aF45
aF39
aF87
aF23
aF69
aF15
aF63
aF15
aF21
aF13
aF81
aF45
aF15
aF13
aF63
aF17
aF39
aF75
aF13
aF23
aF69
aF15
aF57
aF39
aF13
aF81
aF21
aF17
aF51
aF13
aF75
aF51
aF45
aF69
aF15
aF17
aF51
aF45
aF51
aF57
aF45
aF75
aF39
aF39
aF15
aF45
aF19
aF21
aF15
aF45
aF57
aF19
aF51
aF69
aF19
aF17
aF57
aF19
aF17
aF45
aF51
aF17
aF21
aF19
aF63
aF17
aF63
aF51
aF17
aF21
aF63
aF69
aF51
aF17
aF57
aF21
aF63
aF19
aF57
aF63
aF57
aF69
aF23
aF19
aF23
aF57
aF51
aF69
aF23
aF19
aF57
aF51
aF23
aF63
aF57
aF69
aF23
aF21
aF19
aF57
aF21
aF75
aF63
aF21
aF75
aF75
aF23
aF63
aF21
aF25
aF75
aF25
aF75
aF63
aF21
aF69
aF69
aF23
aF63
aF21
aF69
aF75
aF81
aF23
aF69
aF81
aF23
aF69
aF81
aF75
aF23
aF69
aF69
aF75
aF75
aF75
aF75
aF75
aF81
aF81
aF81
aF81
asg128
(lp2911
S'          0 1 0'
p2912
aS'          0 1 0'
p2913
aS'          0 1 0'
p2914
aS'          0 1 0'
p2915
aS'          0 1 0'
p2916
aS'          0 1 0'
p2917
aS'          0 1 0'
p2918
aS'          0 1 0'
p2919
aS'          0 1 0'
p2920
aS'          0 1 0'
p2921
aS'          0 1 0'
p2922
aS'          0 1 0'
p2923
aS'          0 1 0'
p2924
aS'          0 1 0'
p2925
aS'          0 1 0'
p2926
aS'          0 1 0'
p2927
aS'          0 1 0'
p2928
aS'          0 1 0'
p2929
aS'          0 1 0'
p2930
aS'          0 1 0'
p2931
aS'          0 1 0'
p2932
aS'          0 1 0'
p2933
aS'          0 1 0'
p2934
aS'          0 1 0'
p2935
aS'          0 1 0'
p2936
aS'          0 1 0'
p2937
aS'          0 1 0'
p2938
aS'          0 1 0'
p2939
aS'          0 1 0'
p2940
aS'          0 1 0'
p2941
aS'          0 1 0'
p2942
aS'          0 1 0'
p2943
aS'          0 1 0'
p2944
aS'          0 1 0'
p2945
aS'          0 1 0'
p2946
aS'          0 1 0'
p2947
aS'          0 1 0'
p2948
aS'          0 1 0'
p2949
aS'          0 1 0'
p2950
aS'          0 1 0'
p2951
aS'          0 1 0'
p2952
aS'          0 1 0'
p2953
aS'          0 1 0'
p2954
aS'          0 1 0'
p2955
aS'          0 1 0'
p2956
aS'          0 1 0'
p2957
aS'          0 1 0'
p2958
aS'          0 1 0'
p2959
aS'          0 1 0'
p2960
aS'          0 1 0'
p2961
aS'          0 1 0'
p2962
aS'          0 1 0'
p2963
aS'          0 1 0'
p2964
aS'          0 1 0'
p2965
aS'          0 1 0'
p2966
aS'          0 1 0'
p2967
aS'          0 1 0'
p2968
aS'          0 1 0'
p2969
aS'          0 1 0'
p2970
aS'          0 1 0'
p2971
aS'          0 1 0'
p2972
aS'          0 1 0'
p2973
aS'          0 1 0'
p2974
aS'          0 1 0'
p2975
aS'          0 1 0'
p2976
aS'          0 1 0'
p2977
aS'          0 1 0'
p2978
aS'          0 1 0'
p2979
aS'          0 1 0'
p2980
aS'          0 1 0'
p2981
aS'          0 1 0'
p2982
aS'          0 1 0'
p2983
aS'          0 1 0'
p2984
aS'          0 1 0'
p2985
aS'          0 1 0'
p2986
aS'          0 1 0'
p2987
aS'          0 1 0'
p2988
aS'          0 1 0'
p2989
aS'          0 1 0'
p2990
aS'          0 1 0'
p2991
aS'          0 1 0'
p2992
aS'          0 1 0'
p2993
aS'          0 1 0'
p2994
aS'          0 1 0'
p2995
aS'          0 1 0'
p2996
aS'          0 1 0'
p2997
aS'          0 1 0'
p2998
aS'          0 1 0'
p2999
aS'          0 1 0'
p3000
aS'          0 1 0'
p3001
aS'          0 1 0'
p3002
aS'          0 1 0'
p3003
aS'          0 1 0'
p3004
aS'          0 1 0'
p3005
aS'          0 1 0'
p3006
aS'          0 1 0'
p3007
aS'          0 1 0'
p3008
aS'          0 1 0'
p3009
aS'          0 1 0'
p3010
aS'          0 1 0'
p3011
aS'          0 1 0'
p3012
aS'          0 1 0'
p3013
aS'          0 1 0'
p3014
aS'          0 1 0'
p3015
aS'          0 1 0'
p3016
aS'          0 1 0'
p3017
aS'          0 1 0'
p3018
aS'          0 1 0'
p3019
aS'          0 1 0'
p3020
aS'          0 1 0'
p3021
aS'          0 1 0'
p3022
aS'          0 1 0'
p3023
aS'          0 1 0'
p3024
aS'          0 1 0'
p3025
aS'          0 1 0'
p3026
aS'          0 1 0'
p3027
aS'          0 1 0'
p3028
aS'          0 1 0'
p3029
aS'          0 1 0'
p3030
aS'          0 1 0'
p3031
aS'          0 1 0'
p3032
aS'          0 1 0'
p3033
aS'          0 1 0'
p3034
aS'          0 1 0'
p3035
aS'          0 1 0'
p3036
aS'          0 1 0'
p3037
aS'          0 1 0'
p3038
aS'          0 1 0'
p3039
aS'          0 1 0'
p3040
aS'          0 1 0'
p3041
aS'          0 1 0'
p3042
aS'          0 1 0'
p3043
aS'          0 1 0'
p3044
aS'          0 1 0'
p3045
aS'          0 1 0'
p3046
aS'          0 1 0'
p3047
aS'          0 1 0'
p3048
aS'          0 1 0'
p3049
aS'          0 1 0'
p3050
aS'          0 1 0'
p3051
aS'          0 1 0'
p3052
aS'          0 1 0'
p3053
aS'          0 1 0'
p3054
aS'          0 1 0'
p3055
aS'          0 1 0'
p3056
aS'          0 1 0'
p3057
aS'          0 1 0'
p3058
aS'          0 1 0'
p3059
aS'          0 1 0'
p3060
aS'          0 1 0'
p3061
aS'          0 1 0'
p3062
aS'          0 1 0'
p3063
aS'          0 1 0'
p3064
aS'          0 1 0'
p3065
aS'          0 1 0'
p3066
aS'          0 1 0'
p3067
aS'          0 1 0'
p3068
aS'          0 1 0'
p3069
aS'          0 1 0'
p3070
aS'          0 1 0'
p3071
aS'          0 1 0'
p3072
aS'          0 1 0'
p3073
aS'          0 1 0'
p3074
aS'          0 1 0'
p3075
aS'          0 1 0'
p3076
aS'          0 1 0'
p3077
aS'          0 1 0'
p3078
aS'          0 1 0'
p3079
aS'          0 1 0'
p3080
aS'          0 1 0'
p3081
aS'          0 1 0'
p3082
aS'          0 1 0'
p3083
aS'          0 1 0'
p3084
aS'          0 1 0'
p3085
aS'          0 1 0'
p3086
aS'          0 1 0'
p3087
aS'          0 1 0'
p3088
aS'          0 1 0'
p3089
aS'          0 1 0'
p3090
aS'          0 1 0'
p3091
aS'          0 1 0'
p3092
aS'          0 1 0'
p3093
aS'          0 1 0'
p3094
aS'          0 1 0'
p3095
aS'          0 1 0'
p3096
aS'          0 1 0'
p3097
aS'          0 1 0'
p3098
aS'          0 1 0'
p3099
aS'          0 1 0'
p3100
aS'          0 1 0'
p3101
aS'          0 1 0'
p3102
aS'          0 1 0'
p3103
aS'          0 1 0'
p3104
aS'          0 1 0'
p3105
aS'          0 1 0'
p3106
aS'          0 1 0'
p3107
aS'          0 1 0'
p3108
aS'          0 1 0'
p3109
aS'          0 1 0'
p3110
aS'          0 1 0'
p3111
aS'          0 1 0'
p3112
aS'          0 1 0'
p3113
aS'          0 1 0'
p3114
aS'          0 1 0'
p3115
aS'          0 1 0'
p3116
aS'          0 1 0'
p3117
aS'          0 1 0'
p3118
aS'          0 1 0'
p3119
aS'          0 1 0'
p3120
aS'          0 1 0'
p3121
aS'          0 1 0'
p3122
aS'          0 1 0'
p3123
aS'          0 1 0'
p3124
aS'          0 1 0'
p3125
aS'          0 1 0'
p3126
aS'          0 1 0'
p3127
aS'          0 1 0'
p3128
aS'          0 1 0'
p3129
aS'          0 1 0'
p3130
aS'          0 1 0'
p3131
aS'          0 1 0'
p3132
aS'          0 1 0'
p3133
aS'          0 1 0'
p3134
aS'          0 1 0'
p3135
aS'          0 1 0'
p3136
aS'          0 1 0'
p3137
aS'          0 1 0'
p3138
aS'          0 1 0'
p3139
aS'          0 1 0'
p3140
aS'          0 1 0'
p3141
aS'          0 1 0'
p3142
aS'          0 1 0'
p3143
aS'          0 1 0'
p3144
aS'          0 1 0'
p3145
aS'          0 1 0'
p3146
aS'          0 1 0'
p3147
aS'          0 1 0'
p3148
aS'          0 1 0'
p3149
aS'          0 1 0'
p3150
aS'          0 1 0'
p3151
aS'          0 1 0'
p3152
aS'          0 1 0'
p3153
aS'          0 1 0'
p3154
aS'          0 1 0'
p3155
aS'          0 1 0'
p3156
aS'          0 1 0'
p3157
aS'          0 1 0'
p3158
aS'          0 1 0'
p3159
aS'          0 1 0'
p3160
aS'          0 1 0'
p3161
aS'          0 1 0'
p3162
aS'          0 1 0'
p3163
aS'          0 1 0'
p3164
aS'          0 1 0'
p3165
aS'          0 1 0'
p3166
aS'          0 1 0'
p3167
aS'          0 1 0'
p3168
aS'          0 1 0'
p3169
aS'          0 1 0'
p3170
aS'          0 1 0'
p3171
aS'          0 1 0'
p3172
aS'          0 1 0'
p3173
aS'          0 1 0'
p3174
aS'          0 1 0'
p3175
aS'          0 1 0'
p3176
aS'          0 1 0'
p3177
aS'          0 1 0'
p3178
aS'          0 1 0'
p3179
aS'          0 1 0'
p3180
aS'          0 1 0'
p3181
aS'          0 1 0'
p3182
aS'          0 1 0'
p3183
aS'          0 1 0'
p3184
aS'          0 1 0'
p3185
aS'          0 1 0'
p3186
aS'          0 1 0'
p3187
aS'          0 1 0'
p3188
aS'          0 1 0'
p3189
aS'          0 1 0'
p3190
aS'          0 1 0'
p3191
aS'          0 1 0'
p3192
aS'          0 1 0'
p3193
aS'          0 1 0'
p3194
aS'          0 1 0'
p3195
aS'          0 1 0'
p3196
aS'          0 1 0'
p3197
aS'          0 1 0'
p3198
aS'          0 1 0'
p3199
aS'          0 1 0'
p3200
aS'          0 1 0'
p3201
aS'          0 1 0'
p3202
aS'          0 1 0'
p3203
aS'          0 1 0'
p3204
aS'          0 1 0'
p3205
aS'          0 1 0'
p3206
aS'          0 1 0'
p3207
aS'          0 1 0'
p3208
aS'          0 1 0'
p3209
aS'          0 1 0'
p3210
aS'          0 1 0'
p3211
aS'          0 1 0'
p3212
aS'          0 1 0'
p3213
aS'          0 1 0'
p3214
aS'          0 1 0'
p3215
aS'          0 1 0'
p3216
aS'          0 1 0'
p3217
aS'          0 1 0'
p3218
aS'          0 1 0'
p3219
aS'          0 1 0'
p3220
aS'          0 1 0'
p3221
aS'          0 1 0'
p3222
aS'          0 1 0'
p3223
aS'          0 1 0'
p3224
aS'          0 1 0'
p3225
aS'          0 1 0'
p3226
aS'          0 1 0'
p3227
aS'          0 1 0'
p3228
aS'          0 1 0'
p3229
aS'          0 1 0'
p3230
aS'          0 1 0'
p3231
aS'          0 1 0'
p3232
aS'          0 1 0'
p3233
aS'          0 1 0'
p3234
aS'          0 1 0'
p3235
aS'          0 1 0'
p3236
aS'          0 1 0'
p3237
aS'          0 1 0'
p3238
aS'          0 1 0'
p3239
aS'          0 1 0'
p3240
aS'          0 1 0'
p3241
aS'          0 1 0'
p3242
aS'          0 1 0'
p3243
aS'          0 1 0'
p3244
aS'          0 1 0'
p3245
aS'          0 1 0'
p3246
aS'          0 1 0'
p3247
aS'          0 1 0'
p3248
aS'          0 1 0'
p3249
aS'          0 1 0'
p3250
aS'          0 1 0'
p3251
aS'          0 1 0'
p3252
aS'          0 1 0'
p3253
aS'          0 1 0'
p3254
aS'          0 1 0'
p3255
aS'          0 1 0'
p3256
aS'          0 1 0'
p3257
aS'          0 1 0'
p3258
aS'          0 1 0'
p3259
aS'          0 1 0'
p3260
aS'          0 1 0'
p3261
aS'          0 1 0'
p3262
aS'          0 1 0'
p3263
aS'          0 1 0'
p3264
aS'          0 1 0'
p3265
aS'          0 1 0'
p3266
aS'          0 1 0'
p3267
aS'          0 1 0'
p3268
aS'          0 1 0'
p3269
aS'          0 1 0'
p3270
aS'          0 1 0'
p3271
aS'          0 1 0'
p3272
aS'          0 1 0'
p3273
aS'          0 1 0'
p3274
aS'          0 1 0'
p3275
aS'          0 1 0'
p3276
aS'          0 1 0'
p3277
aS'          0 1 0'
p3278
aS'          0 1 0'
p3279
aS'          0 1 0'
p3280
aS'          0 1 0'
p3281
aS'          0 1 0'
p3282
aS'          0 1 0'
p3283
aS'          0 1 0'
p3284
aS'          0 1 0'
p3285
aS'          0 1 0'
p3286
aS'          0 1 0'
p3287
aS'          0 1 0'
p3288
aS'          0 1 0'
p3289
aS'          0 1 0'
p3290
aS'          0 1 0'
p3291
aS'          0 1 0'
p3292
aS'          0 1 0'
p3293
aS'          0 1 0'
p3294
aS'          0 1 0'
p3295
aS'          0 1 0'
p3296
aS'          0 1 0'
p3297
aS'          0 1 0'
p3298
aS'          0 1 0'
p3299
aS'          0 1 0'
p3300
aS'          0 1 0'
p3301
aS'          0 1 0'
p3302
aS'          0 1 0'
p3303
aS'          0 1 0'
p3304
aS'          0 1 0'
p3305
aS'          0 1 0'
p3306
aS'          0 1 0'
p3307
aS'          0 1 0'
p3308
aS'          0 1 0'
p3309
aS'          0 1 0'
p3310
aS'          0 1 0'
p3311
aS'          0 1 0'
p3312
aS'          0 1 0'
p3313
aS'          0 1 0'
p3314
aS'          0 1 0'
p3315
aS'          0 1 0'
p3316
aS'          0 1 0'
p3317
aS'          0 1 0'
p3318
aS'          0 1 0'
p3319
aS'          0 1 0'
p3320
aS'          0 1 0'
p3321
aS'          0 1 0'
p3322
aS'          0 1 0'
p3323
aS'          0 1 0'
p3324
aS'          0 1 0'
p3325
aS'          0 1 0'
p3326
aS'          0 1 0'
p3327
aS'          0 1 0'
p3328
aS'          0 1 0'
p3329
aS'          0 1 0'
p3330
aS'          0 1 0'
p3331
aS'          0 1 0'
p3332
aS'          0 1 0'
p3333
aS'          0 1 0'
p3334
aS'          0 1 0'
p3335
aS'          0 1 0'
p3336
aS'          0 1 0'
p3337
aS'          0 1 0'
p3338
aS'          0 1 0'
p3339
aS'          0 1 0'
p3340
aS'          0 1 0'
p3341
aS'          0 1 0'
p3342
aS'          0 1 0'
p3343
aS'          0 1 0'
p3344
aS'          0 1 0'
p3345
aS'          0 1 0'
p3346
aS'          0 1 0'
p3347
aS'          0 1 0'
p3348
aS'          0 1 0'
p3349
aS'          0 1 0'
p3350
aS'          0 1 0'
p3351
aS'          0 1 0'
p3352
aS'          0 1 0'
p3353
aS'          0 1 0'
p3354
aS'          0 1 0'
p3355
aS'          0 1 0'
p3356
aS'          0 1 0'
p3357
aS'          0 1 0'
p3358
aS'          0 1 0'
p3359
aS'          0 1 0'
p3360
aS'          0 1 0'
p3361
aS'          0 1 0'
p3362
aS'          0 1 0'
p3363
aS'          0 1 0'
p3364
aS'          0 1 0'
p3365
aS'          0 1 0'
p3366
aS'          0 1 0'
p3367
aS'          0 1 0'
p3368
aS'          0 1 0'
p3369
aS'          0 1 0'
p3370
aS'          0 1 0'
p3371
aS'          0 1 0'
p3372
aS'          0 1 0'
p3373
aS'          0 1 0'
p3374
aS'          0 1 0'
p3375
aS'          0 1 0'
p3376
aS'          0 1 0'
p3377
aS'          0 1 0'
p3378
aS'          0 1 0'
p3379
aS'          0 1 0'
p3380
aS'          0 1 0'
p3381
aS'          0 1 0'
p3382
aS'          0 1 0'
p3383
aS'          0 1 0'
p3384
aS'          0 1 0'
p3385
aS'          0 1 0'
p3386
aS'          0 1 0'
p3387
aS'          0 1 0'
p3388
aS'          0 1 0'
p3389
aS'          0 1 0'
p3390
aS'          0 1 0'
p3391
aS'          0 1 0'
p3392
aS'          0 1 0'
p3393
aS'          0 1 0'
p3394
aS'          0 1 0'
p3395
aS'          0 1 0'
p3396
aS'          0 1 0'
p3397
aS'          0 1 0'
p3398
aS'          0 1 0'
p3399
aS'          0 1 0'
p3400
aS'          0 1 0'
p3401
aS'          0 1 0'
p3402
aS'          0 1 0'
p3403
aS'          0 1 0'
p3404
aS'          0 1 0'
p3405
aS'          0 1 0'
p3406
aS'          0 1 0'
p3407
aS'          0 1 0'
p3408
aS'          0 1 0'
p3409
aS'          0 1 0'
p3410
aS'          0 1 0'
p3411
aS'          0 1 0'
p3412
aS'          0 1 0'
p3413
aS'          0 1 0'
p3414
aS'          0 1 0'
p3415
aS'          0 1 0'
p3416
aS'          0 1 0'
p3417
aS'          0 1 0'
p3418
aS'          0 1 0'
p3419
aS'          0 1 0'
p3420
aS'          0 1 0'
p3421
aS'          0 1 0'
p3422
aS'          0 1 0'
p3423
aS'          0 1 0'
p3424
aS'          0 1 0'
p3425
aS'          0 1 0'
p3426
aS'          0 1 0'
p3427
aS'          0 1 0'
p3428
aS'          0 1 0'
p3429
aS'          0 1 0'
p3430
aS'          0 1 0'
p3431
aS'          0 1 0'
p3432
aS'          0 1 0'
p3433
aS'          0 1 0'
p3434
aS'          0 1 0'
p3435
aS'          0 1 0'
p3436
aS'          0 1 0'
p3437
aS'          0 1 0'
p3438
aS'          0 1 0'
p3439
aS'          0 1 0'
p3440
aS'          0 1 0'
p3441
aS'          0 1 0'
p3442
aS'          0 1 0'
p3443
aS'          0 1 0'
p3444
aS'          0 1 0'
p3445
aS'          0 1 0'
p3446
aS'          0 1 0'
p3447
aS'          0 1 0'
p3448
aS'          0 1 0'
p3449
aS'          0 1 0'
p3450
aS'          0 1 0'
p3451
aS'          0 1 0'
p3452
aS'          0 1 0'
p3453
aS'          0 1 0'
p3454
aS'          0 1 0'
p3455
aS'          0 1 0'
p3456
aS'          0 1 0'
p3457
aS'          0 1 0'
p3458
aS'          0 1 0'
p3459
aS'          0 1 0'
p3460
aS'          0 1 0'
p3461
aS'          0 1 0'
p3462
asg124
(lp3463
F0.158
aF0.158
aF0.158
aF0.158
aF0.158
aF0.158
aF0.158
aF0.158
aF0.158
aF0.158
aF0.158
aF0.158
aF0.158
aF0.158
aF0.158
aF0.158
aF0.158
aF0.158
aF0.158
aF0.158
aF0.158
aF0.158
aF0.158
aF0.158
aF0.158
aF0.158
aF0.158
aF0.158
aF0.158
aF0.158
aF0.158
aF0.158
aF0.158
aF0.158
aF0.158
aF0.158
aF0.158
aF0.158
aF0.158
aF0.158
aF0.158
aF0.158
aF0.158
aF0.158
aF0.158
aF0.158
aF0.158
aF0.158
aF0.158
aF0.158
aF0.158
aF0.158
aF0.158
aF0.158
aF0.158
aF0.158
aF0.158
aF0.158
aF0.158
aF0.158
aF0.158
aF0.158
aF0.158
aF0.158
aF0.158
aF0.158
aF0.158
aF0.158
aF0.158
aF0.158
aF0.158
aF0.158
aF0.158
aF0.158
aF0.158
aF0.158
aF0.158
aF0.158
aF0.158
aF0.158
aF0.158
aF0.158
aF0.158
aF0.158
aF0.158
aF0.158
aF0.158
aF0.158
aF0.158
aF0.158
aF0.158
aF0.158
aF0.158
aF0.158
aF0.158
aF0.158
aF0.158
aF0.158
aF0.158
aF0.158
aF0.158
aF0.14799999999999999
aF0.158
aF0.158
aF0.158
aF0.158
aF0.158
aF0.14999999999999999
aF0.14099999999999999
aF0.18099999999999999
aF0.14000000000000001
aF0.157
aF0.17199999999999999
aF0.158
aF0.158
aF0.158
aF0.158
aF0.157
aF0.17999999999999999
aF0.17000000000000001
aF0.158
aF0.158
aF0.16500000000000001
aF0.158
aF0.158
aF0.158
aF0.14899999999999999
aF0.158
aF0.158
aF0.186
aF0.158
aF0.14999999999999999
aF0.158
aF0.155
aF0.158
aF0.158
aF0.158
aF0.158
aF0.158
aF0.121
aF0.161
aF0.158
aF0.158
aF0.158
aF0.158
aF0.158
aF0.158
aF0.158
aF0.17999999999999999
aF0.158
aF0.158
aF0.158
aF0.158
aF0.158
aF0.158
aF0.158
aF0.158
aF0.158
aF0.158
aF0.158
aF0.158
aF0.158
aF0.158
aF0.158
aF0.158
aF0.158
aF0.158
aF0.158
aF0.158
aF0.158
aF0.14799999999999999
aF0.158
aF0.158
aF0.158
aF0.158
aF0.158
aF0.158
aF0.158
aF0.158
aF0.158
aF0.158
aF0.158
aF0.158
aF0.158
aF0.158
aF0.158
aF0.158
aF0.158
aF0.158
aF0.158
aF0.158
aF0.158
aF0.158
aF0.158
aF0.158
aF0.158
aF0.158
aF0.158
aF0.158
aF0.158
aF0.158
aF0.158
aF0.158
aF0.158
aF0.158
aF0.158
aF0.158
aF0.158
aF0.158
aF0.158
aF0.158
aF0.158
aF0.158
aF0.158
aF0.158
aF0.158
aF0.158
aF0.158
aF0.158
aF0.158
aF0.158
aF0.158
aF0.158
aF0.158
aF0.158
aF0.158
aF0.158
aF0.158
aF0.158
aF0.158
aF0.158
aF0.158
aF0.158
aF0.158
aF0.158
aF0.158
aF0.158
aF0.158
aF0.158
aF0.158
aF0.158
aF0.158
aF0.158
aF0.158
aF0.158
aF0.158
aF0.158
aF0.158
aF0.158
aF0.158
aF0.158
aF0.158
aF0.158
aF0.158
aF0.158
aF0.158
aF0.158
aF0.158
aF0.158
aF0.158
aF0.158
aF0.158
aF0.158
aF0.158
aF0.158
aF0.158
aF0.158
aF0.158
aF0.158
aF0.158
aF0.158
aF0.158
aF0.158
aF0.158
aF0.158
aF0.158
aF0.158
aF0.158
aF0.158
aF0.158
aF0.158
aF0.158
aF0.158
aF0.158
aF0.158
aF0.158
aF0.158
aF0.158
aF0.158
aF0.158
aF0.158
aF0.158
aF0.158
aF0.158
aF0.158
aF0.158
aF0.158
aF0.158
aF0.158
aF0.158
aF0.158
aF0.158
aF0.158
aF0.158
aF0.158
aF0.158
aF0.158
aF0.158
aF0.158
aF0.158
aF0.17599999999999999
aF0.158
aF0.158
aF0.158
aF0.158
aF0.158
aF0.158
aF0.158
aF0.158
aF0.158
aF0.158
aF0.158
aF0.158
aF0.158
aF0.158
aF0.158
aF0.158
aF0.158
aF0.158
aF0.158
aF0.158
aF0.158
aF0.158
aF0.158
aF0.158
aF0.158
aF0.158
aF0.158
aF0.158
aF0.158
aF0.158
aF0.158
aF0.158
aF0.158
aF0.158
aF0.158
aF0.158
aF0.158
aF0.158
aF0.158
aF0.158
aF0.158
aF0.158
aF0.158
aF0.158
aF0.158
aF0.158
aF0.158
aF0.158
aF0.158
aF0.158
aF0.158
aF0.158
aF0.158
aF0.158
aF0.158
aF0.158
aF0.158
aF0.158
aF0.158
aF0.158
aF0.158
aF0.158
aF0.158
aF0.158
aF0.158
aF0.158
aF0.158
aF0.158
aF0.158
aF0.158
aF0.158
aF0.158
aF0.158
aF0.158
aF0.158
aF0.158
aF0.158
aF0.158
aF0.158
aF0.158
aF0.158
aF0.158
aF0.158
aF0.158
aF0.158
aF0.158
aF0.158
aF0.158
aF0.158
aF0.158
aF0.158
aF0.158
aF0.158
aF0.158
aF0.158
aF0.158
aF0.158
aF0.158
aF0.158
aF0.158
aF0.158
aF0.158
aF0.158
aF0.158
aF0.158
aF0.158
aF0.158
aF0.158
aF0.158
aF0.158
aF0.158
aF0.158
aF0.158
aF0.158
aF0.158
aF0.158
aF0.158
aF0.158
aF0.158
aF0.158
aF0.158
aF0.158
aF0.158
aF0.158
aF0.158
aF0.158
aF0.158
aF0.158
aF0.158
aF0.158
aF0.158
aF0.158
aF0.158
aF0.158
aF0.158
aF0.158
aF0.158
aF0.158
aF0.158
aF0.158
aF0.158
aF0.158
aF0.158
aF0.158
aF0.158
aF0.158
aF0.158
aF0.158
aF0.158
aF0.158
aF0.158
aF0.158
aF0.158
aF0.158
aF0.158
aF0.158
aF0.158
aF0.158
aF0.158
aF0.158
aF0.158
aF0.158
aF0.158
aF0.158
aF0.158
aF0.158
aF0.158
aF0.158
aF0.158
aF0.158
aF0.158
aF0.158
aF0.158
aF0.158
aF0.158
aF0.158
aF0.158
aF0.158
aF0.158
aF0.158
aF0.158
aF0.158
aF0.158
aF0.158
aF0.158
aF0.158
aF0.158
aF0.158
aF0.158
aF0.158
aF0.158
aF0.158
aF0.158
aF0.158
aF0.158
aF0.158
aF0.158
aF0.158
aF0.158
aF0.158
aF0.158
aF0.158
aF0.158
aF0.158
aF0.158
aF0.158
aF0.158
aF0.158
aF0.158
aF0.158
aF0.158
aF0.158
aF0.158
aF0.158
aF0.158
aF0.158
aF0.158
aF0.158
aF0.158
aF0.158
aF0.158
aF0.158
aF0.158
aF0.158
aF0.158
aF0.158
aF0.158
aF0.158
aF0.158
aF0.158
aF0.158
aF0.158
aF0.158
aF0.158
aF0.158
aF0.158
aF0.158
aF0.158
aF0.158
aF0.158
ass.