(dp1
S'header'
p2
(dp3
S'format'
p4
(dp5
S'column1'
p6
S'%10d'
p7
sS'column3'
p8
S'%30s'
p9
sS'column2'
p10
S'%20f'
p11
ssS'default'
p12
(dp13
g6
I0
sg8
S''
sg10
F0
ssS'table_type'
p14
S'strict'
p15
sS'size_in_bytes'
p16
NsS'table_name'
p17
S'sampletab'
p18
sS'number_of_rows'
p19
I3
sS'order'
p20
(g6
g10
g8
tp21
ssS'data'
p22
(dp23
g6
(lp24
I1
aI2
aI3
asg8
(lp25
S'one'
p26
aS'two'
p27
aS'three'
p28
asg10
(lp29
F10.5
aF11.5
aF12.5
ass.